                              1 ;--------------------------------------------------------
                              2 ; File Created by SDCC : free open source ANSI-C Compiler
                              3 ; Version 3.6.8 #9946 (Linux)
                              4 ;--------------------------------------------------------
                              5 	.module background
                              6 	.optsdcc -mz80
                              7 	
                              8 ;--------------------------------------------------------
                              9 ; Public variables in this module
                             10 ;--------------------------------------------------------
                             11 	.globl _cpct_etm_setTileset2x4
                             12 	.globl _cpct_etm_drawTileBox2x4
                             13 	.globl _cpct_etm_drawTilemap2x4_f
                             14 	.globl _cpct_getScreenPtr
                             15 	.globl _pvmem
                             16 	.globl _initializeBackground
                             17 	.globl _restoreBackground
                             18 ;--------------------------------------------------------
                             19 ; special function registers
                             20 ;--------------------------------------------------------
                             21 ;--------------------------------------------------------
                             22 ; ram data
                             23 ;--------------------------------------------------------
                             24 	.area _DATA
   0000                      25 _pvmem::
   0000                      26 	.ds 2
                             27 ;--------------------------------------------------------
                             28 ; ram data
                             29 ;--------------------------------------------------------
                             30 	.area _INITIALIZED
                             31 ;--------------------------------------------------------
                             32 ; absolute external ram data
                             33 ;--------------------------------------------------------
                             34 	.area _DABS (ABS)
                             35 ;--------------------------------------------------------
                             36 ; global & static initialisations
                             37 ;--------------------------------------------------------
                             38 	.area _HOME
                             39 	.area _GSINIT
                             40 	.area _GSFINAL
                             41 	.area _GSINIT
                             42 ;--------------------------------------------------------
                             43 ; Home
                             44 ;--------------------------------------------------------
                             45 	.area _HOME
                             46 	.area _HOME
                             47 ;--------------------------------------------------------
                             48 ; code
                             49 ;--------------------------------------------------------
                             50 	.area _CODE
                             51 ;src/background.c:10: void initializeBackground()
                             52 ;	---------------------------------
                             53 ; Function initializeBackground
                             54 ; ---------------------------------
   0000                      55 _initializeBackground::
                             56 ;src/background.c:14: pvmem = cpct_getScreenPtr(CPCT_VMEM_START, TILE_MAP_SCREEN_BYTE_OFFSET_X, TILE_MAP_SCREEN_PIXEL_OFFSET_Y);
   0000 21 08 10      [10]   57 	ld	hl, #0x1008
   0003 E5            [11]   58 	push	hl
   0004 21 00 C0      [10]   59 	ld	hl, #0xc000
   0007 E5            [11]   60 	push	hl
   0008 CDr00r00      [17]   61 	call	_cpct_getScreenPtr
   000B 22r00r00      [16]   62 	ld	(_pvmem), hl
                             63 ;src/background.c:16: cpct_etm_setTileset2x4(g_tileset);
   000E 21r00r00      [10]   64 	ld	hl, #_g_tileset
   0011 CDr00r00      [17]   65 	call	_cpct_etm_setTileset2x4
                             66 ;src/background.c:19: cpct_etm_drawTilemap2x4_f(g_tilemap_l00_W, g_tilemap_l00_H, pvmem, g_tilemap_l00);
   0014 01r00r00      [10]   67 	ld	bc, #_g_tilemap_l00+0
   0017 2Ar00r00      [16]   68 	ld	hl, (_pvmem)
   001A C5            [11]   69 	push	bc
   001B E5            [11]   70 	push	hl
   001C 21 1F 2E      [10]   71 	ld	hl, #0x2e1f
   001F E5            [11]   72 	push	hl
   0020 CDr00r00      [17]   73 	call	_cpct_etm_drawTilemap2x4_f
   0023 C9            [10]   74 	ret
                             75 ;src/background.c:24: void restoreBackground(u8 screenX, u8 screenY, u8 bwidth, u8 pHeight)
                             76 ;	---------------------------------
                             77 ; Function restoreBackground
                             78 ; ---------------------------------
   0024                      79 _restoreBackground::
   0024 DD E5         [15]   80 	push	ix
   0026 DD 21 00 00   [14]   81 	ld	ix,#0
   002A DD 39         [15]   82 	add	ix,sp
   002C F5            [11]   83 	push	af
                             84 ;src/background.c:28: u8 tileX = (screenX - TILE_MAP_SCREEN_BYTE_OFFSET_X) / 2;
   002D DD 4E 04      [19]   85 	ld	c, 4 (ix)
   0030 06 00         [ 7]   86 	ld	b, #0x00
   0032 79            [ 4]   87 	ld	a, c
   0033 C6 F8         [ 7]   88 	add	a, #0xf8
   0035 5F            [ 4]   89 	ld	e, a
   0036 78            [ 4]   90 	ld	a, b
   0037 CE FF         [ 7]   91 	adc	a, #0xff
   0039 57            [ 4]   92 	ld	d, a
   003A 6B            [ 4]   93 	ld	l, e
   003B 62            [ 4]   94 	ld	h, d
   003C CB 7A         [ 8]   95 	bit	7, d
   003E 28 04         [12]   96 	jr	Z,00109$
   0040 21 F9 FF      [10]   97 	ld	hl, #0xfff9
   0043 09            [11]   98 	add	hl, bc
   0044                      99 00109$:
   0044 CB 2C         [ 8]  100 	sra	h
   0046 CB 1D         [ 8]  101 	rr	l
   0048 DD 75 FE      [19]  102 	ld	-2 (ix), l
                            103 ;src/background.c:29: u8 tileY = (screenY - TILE_MAP_SCREEN_PIXEL_OFFSET_Y) / 4;
   004B DD 4E 05      [19]  104 	ld	c, 5 (ix)
   004E 06 00         [ 7]  105 	ld	b, #0x00
   0050 79            [ 4]  106 	ld	a, c
   0051 C6 F0         [ 7]  107 	add	a, #0xf0
   0053 5F            [ 4]  108 	ld	e, a
   0054 78            [ 4]  109 	ld	a, b
   0055 CE FF         [ 7]  110 	adc	a, #0xff
   0057 57            [ 4]  111 	ld	d, a
   0058 6B            [ 4]  112 	ld	l, e
   0059 62            [ 4]  113 	ld	h, d
   005A CB 7A         [ 8]  114 	bit	7, d
   005C 28 04         [12]  115 	jr	Z,00110$
   005E 21 F3 FF      [10]  116 	ld	hl, #0xfff3
   0061 09            [11]  117 	add	hl, bc
   0062                     118 00110$:
   0062 CB 2C         [ 8]  119 	sra	h
   0064 CB 1D         [ 8]  120 	rr	l
   0066 CB 2C         [ 8]  121 	sra	h
   0068 CB 1D         [ 8]  122 	rr	l
   006A DD 75 FF      [19]  123 	ld	-1 (ix), l
                            124 ;src/background.c:30: u8 tileW = bwidth / 2;
   006D DD 5E 06      [19]  125 	ld	e, 6 (ix)
   0070 CB 3B         [ 8]  126 	srl	e
                            127 ;src/background.c:31: u8 tileH = pHeight / 4;
   0072 DD 56 07      [19]  128 	ld	d, 7 (ix)
   0075 CB 3A         [ 8]  129 	srl	d
   0077 CB 3A         [ 8]  130 	srl	d
                            131 ;src/background.c:33: if (pHeight % 4 > 0) {
   0079 DD 7E 07      [19]  132 	ld	a, 7 (ix)
   007C E6 03         [ 7]  133 	and	a, #0x03
   007E 28 01         [12]  134 	jr	Z,00102$
                            135 ;src/background.c:34: tileH ++;
   0080 14            [ 4]  136 	inc	d
   0081                     137 00102$:
                            138 ;src/background.c:37: if (bwidth % 2 > 0) {
   0081 DD CB 06 46   [20]  139 	bit	0, 6 (ix)
   0085 28 01         [12]  140 	jr	Z,00104$
                            141 ;src/background.c:38: tileW ++;
   0087 1C            [ 4]  142 	inc	e
   0088                     143 00104$:
                            144 ;src/background.c:41: if (screenX & 1 == 1)
   0088 DD CB 04 46   [20]  145 	bit	0, 4 (ix)
   008C 28 01         [12]  146 	jr	Z,00106$
                            147 ;src/background.c:43: tileW += 1;
   008E 1C            [ 4]  148 	inc	e
   008F                     149 00106$:
                            150 ;src/background.c:46: cpct_etm_drawTileBox2x4(tileX, tileY, tileW , tileH , g_tilemap_l00_W, pvmem, g_tilemap_l00);
   008F 2Ar00r00      [16]  151 	ld	hl, (_pvmem)
   0092 01r00r00      [10]  152 	ld	bc, #_g_tilemap_l00
   0095 C5            [11]  153 	push	bc
   0096 E5            [11]  154 	push	hl
   0097 3E 1F         [ 7]  155 	ld	a, #0x1f
   0099 F5            [11]  156 	push	af
   009A 33            [ 6]  157 	inc	sp
   009B D5            [11]  158 	push	de
   009C 33            [ 6]  159 	inc	sp
   009D 53            [ 4]  160 	ld	d, e
   009E DD 5E FF      [19]  161 	ld	e, -1 (ix)
   00A1 D5            [11]  162 	push	de
   00A2 DD 7E FE      [19]  163 	ld	a, -2 (ix)
   00A5 F5            [11]  164 	push	af
   00A6 33            [ 6]  165 	inc	sp
   00A7 CDr00r00      [17]  166 	call	_cpct_etm_drawTileBox2x4
   00AA DD F9         [10]  167 	ld	sp, ix
   00AC DD E1         [14]  168 	pop	ix
   00AE C9            [10]  169 	ret
                            170 	.area _CODE
                            171 	.area _INITIALIZER
                            172 	.area _CABS (ABS)
