                              1 ;--------------------------------------------------------
                              2 ; File Created by SDCC : free open source ANSI-C Compiler
                              3 ; Version 3.6.8 #9946 (Linux)
                              4 ;--------------------------------------------------------
                              5 	.module background
                              6 	.optsdcc -mz80
                              7 	
                              8 ;--------------------------------------------------------
                              9 ; Public variables in this module
                             10 ;--------------------------------------------------------
                             11 	.globl _cpct_etm_setTileset2x4
                             12 	.globl _cpct_etm_drawTileBox2x4
                             13 	.globl _cpct_etm_drawTilemap2x4_f
                             14 	.globl _cpct_getScreenPtr
                             15 	.globl _cpct_drawSolidBox
                             16 	.globl _pvmem
                             17 	.globl _background_initialize
                             18 	.globl _background_bounce_ball
                             19 	.globl _background_restore_world_coords
                             20 	.globl _background_restore_tiles_exact
                             21 	.globl _background_debug_box_wc
                             22 ;--------------------------------------------------------
                             23 ; special function registers
                             24 ;--------------------------------------------------------
                             25 ;--------------------------------------------------------
                             26 ; ram data
                             27 ;--------------------------------------------------------
                             28 	.area _DATA
   0000                      29 _pvmem::
   0000                      30 	.ds 2
                             31 ;--------------------------------------------------------
                             32 ; ram data
                             33 ;--------------------------------------------------------
                             34 	.area _INITIALIZED
                             35 ;--------------------------------------------------------
                             36 ; absolute external ram data
                             37 ;--------------------------------------------------------
                             38 	.area _DABS (ABS)
                             39 ;--------------------------------------------------------
                             40 ; global & static initialisations
                             41 ;--------------------------------------------------------
                             42 	.area _HOME
                             43 	.area _GSINIT
                             44 	.area _GSFINAL
                             45 	.area _GSINIT
                             46 ;--------------------------------------------------------
                             47 ; Home
                             48 ;--------------------------------------------------------
                             49 	.area _HOME
                             50 	.area _HOME
                             51 ;--------------------------------------------------------
                             52 ; code
                             53 ;--------------------------------------------------------
                             54 	.area _CODE
                             55 ;src/background.c:17: void background_initialize()
                             56 ;	---------------------------------
                             57 ; Function background_initialize
                             58 ; ---------------------------------
   0000                      59 _background_initialize::
                             60 ;src/background.c:20: pvmem = cpct_getScreenPtr(CPCT_VMEM_START, TILE_MAP_SCREEN_BYTE_OFFSET_X, TILE_MAP_SCREEN_PIXEL_OFFSET_Y);
   0000 21 08 00      [10]   61 	ld	hl, #0x0008
   0003 E5            [11]   62 	push	hl
   0004 21 00 C0      [10]   63 	ld	hl, #0xc000
   0007 E5            [11]   64 	push	hl
   0008 CDr00r00      [17]   65 	call	_cpct_getScreenPtr
   000B 22r00r00      [16]   66 	ld	(_pvmem), hl
                             67 ;src/background.c:22: cpct_etm_setTileset2x4(g_tileset);
   000E 21r00r00      [10]   68 	ld	hl, #_g_tileset
   0011 CDr00r00      [17]   69 	call	_cpct_etm_setTileset2x4
                             70 ;src/background.c:25: cpct_etm_drawTilemap2x4_f(BACKGROUND_TILMAP_W, BACKGROUND_TILMAP_H, pvmem, current_level->background_tilemap);
   0014 2Ar00r00      [16]   71 	ld	hl, (_current_level)
   0017 4E            [ 7]   72 	ld	c, (hl)
   0018 23            [ 6]   73 	inc	hl
   0019 46            [ 7]   74 	ld	b, (hl)
   001A 2Ar00r00      [16]   75 	ld	hl, (_pvmem)
   001D C5            [11]   76 	push	bc
   001E E5            [11]   77 	push	hl
   001F 21 1E 32      [10]   78 	ld	hl, #0x321e
   0022 E5            [11]   79 	push	hl
   0023 CDr00r00      [17]   80 	call	_cpct_etm_drawTilemap2x4_f
   0026 C9            [10]   81 	ret
                             82 ;src/background.c:28: BounceHits background_bounce_ball(i16 at_wx, i16 at_wy)
                             83 ;	---------------------------------
                             84 ; Function background_bounce_ball
                             85 ; ---------------------------------
   0027                      86 _background_bounce_ball::
                             87 ;src/background.c:31: BounceHits bounces = at_wx < 0 ? BOUNCE_X : 0;
   0027 21 03 00      [10]   88 	ld	hl, #2+1
   002A 39            [11]   89 	add	hl, sp
   002B CB 7E         [12]   90 	bit	7, (hl)
   002D 28 04         [12]   91 	jr	Z,00103$
   002F 0E 01         [ 7]   92 	ld	c, #0x01
   0031 18 02         [12]   93 	jr	00104$
   0033                      94 00103$:
   0033 0E 00         [ 7]   95 	ld	c, #0x00
   0035                      96 00104$:
                             97 ;src/background.c:33: bounces |= (at_wx + BALL_WIDTH) > PLAY_AREA_WIDTH ? BOUNCE_X : BOUNCE_NONE;
   0035 21 02 00      [10]   98 	ld	hl, #2
   0038 39            [11]   99 	add	hl, sp
   0039 5E            [ 7]  100 	ld	e, (hl)
   003A 23            [ 6]  101 	inc	hl
   003B 56            [ 7]  102 	ld	d, (hl)
   003C 13            [ 6]  103 	inc	de
   003D 13            [ 6]  104 	inc	de
   003E 13            [ 6]  105 	inc	de
   003F 3E 34         [ 7]  106 	ld	a, #0x34
   0041 BB            [ 4]  107 	cp	a, e
   0042 3E 00         [ 7]  108 	ld	a, #0x00
   0044 9A            [ 4]  109 	sbc	a, d
   0045 E2r4Ar00      [10]  110 	jp	PO, 00121$
   0048 EE 80         [ 7]  111 	xor	a, #0x80
   004A                     112 00121$:
   004A F2r51r00      [10]  113 	jp	P, 00105$
   004D 3E 01         [ 7]  114 	ld	a, #0x01
   004F 18 02         [12]  115 	jr	00106$
   0051                     116 00105$:
   0051 3E 00         [ 7]  117 	ld	a, #0x00
   0053                     118 00106$:
   0053 B1            [ 4]  119 	or	a, c
   0054 4F            [ 4]  120 	ld	c, a
                            121 ;src/background.c:35: bounces |= (at_wy < 0) ? BOUNCE_Y : BOUNCE_NONE;
   0055 21 05 00      [10]  122 	ld	hl, #4+1
   0058 39            [11]  123 	add	hl, sp
   0059 CB 7E         [12]  124 	bit	7, (hl)
   005B 28 04         [12]  125 	jr	Z,00107$
   005D 3E 02         [ 7]  126 	ld	a, #0x02
   005F 18 02         [12]  127 	jr	00108$
   0061                     128 00107$:
   0061 3E 00         [ 7]  129 	ld	a, #0x00
   0063                     130 00108$:
   0063 B1            [ 4]  131 	or	a, c
   0064 6F            [ 4]  132 	ld	l, a
                            133 ;src/background.c:37: return bounces;
   0065 C9            [10]  134 	ret
                            135 ;src/background.c:40: void background_restore_world_coords(i16 wx, i16 wy, u8 width, u8 height)
                            136 ;	---------------------------------
                            137 ; Function background_restore_world_coords
                            138 ; ---------------------------------
   0066                     139 _background_restore_world_coords::
   0066 DD E5         [15]  140 	push	ix
   0068 DD 21 00 00   [14]  141 	ld	ix,#0
   006C DD 39         [15]  142 	add	ix,sp
   006E F5            [11]  143 	push	af
   006F F5            [11]  144 	push	af
                            145 ;src/background.c:47: u8 tileX = (wx / 2) + 2;
   0070 DD 4E 04      [19]  146 	ld	c,4 (ix)
   0073 DD 46 05      [19]  147 	ld	b,5 (ix)
   0076 CB 78         [ 8]  148 	bit	7, b
   0078 28 01         [12]  149 	jr	Z,00109$
   007A 03            [ 6]  150 	inc	bc
   007B                     151 00109$:
   007B CB 28         [ 8]  152 	sra	b
   007D CB 19         [ 8]  153 	rr	c
   007F 79            [ 4]  154 	ld	a, c
   0080 C6 02         [ 7]  155 	add	a, #0x02
   0082 DD 77 FC      [19]  156 	ld	-4 (ix), a
                            157 ;src/background.c:48: u8 tileY = (wy / 4) + 2;
   0085 DD 4E 06      [19]  158 	ld	c,6 (ix)
   0088 DD 46 07      [19]  159 	ld	b,7 (ix)
   008B CB 78         [ 8]  160 	bit	7, b
   008D 28 03         [12]  161 	jr	Z,00110$
   008F 03            [ 6]  162 	inc	bc
   0090 03            [ 6]  163 	inc	bc
   0091 03            [ 6]  164 	inc	bc
   0092                     165 00110$:
   0092 CB 28         [ 8]  166 	sra	b
   0094 CB 19         [ 8]  167 	rr	c
   0096 CB 28         [ 8]  168 	sra	b
   0098 CB 19         [ 8]  169 	rr	c
   009A 79            [ 4]  170 	ld	a, c
   009B C6 02         [ 7]  171 	add	a, #0x02
   009D DD 77 FD      [19]  172 	ld	-3 (ix), a
                            173 ;src/background.c:49: u8 tileW = width / 2;
   00A0 DD 5E 08      [19]  174 	ld	e, 8 (ix)
   00A3 CB 3B         [ 8]  175 	srl	e
                            176 ;src/background.c:50: u8 tileH = height / 4;
   00A5 DD 56 09      [19]  177 	ld	d, 9 (ix)
   00A8 CB 3A         [ 8]  178 	srl	d
   00AA CB 3A         [ 8]  179 	srl	d
                            180 ;src/background.c:53: if (height % 4 > 0)
   00AC DD 7E 09      [19]  181 	ld	a, 9 (ix)
   00AF E6 03         [ 7]  182 	and	a, #0x03
   00B1 28 01         [12]  183 	jr	Z,00102$
                            184 ;src/background.c:55: tileH++;
   00B3 14            [ 4]  185 	inc	d
   00B4                     186 00102$:
                            187 ;src/background.c:59: if (width % 2 > 0)
   00B4 DD CB 08 46   [20]  188 	bit	0, 8 (ix)
   00B8 28 01         [12]  189 	jr	Z,00104$
                            190 ;src/background.c:61: tileW++;
   00BA 1C            [ 4]  191 	inc	e
   00BB                     192 00104$:
                            193 ;src/background.c:65: if (wx & 1 == 1)
   00BB DD CB 04 46   [20]  194 	bit	0, 4 (ix)
   00BF 28 01         [12]  195 	jr	Z,00106$
                            196 ;src/background.c:67: tileW += 1;
   00C1 1C            [ 4]  197 	inc	e
   00C2                     198 00106$:
                            199 ;src/background.c:70: cpct_etm_drawTileBox2x4(tileX, tileY, tileW, tileH, BACKGROUND_TILMAP_W, pvmem, current_level->background_tilemap);
   00C2 2Ar00r00      [16]  200 	ld	hl, (_current_level)
   00C5 4E            [ 7]  201 	ld	c, (hl)
   00C6 23            [ 6]  202 	inc	hl
   00C7 46            [ 7]  203 	ld	b, (hl)
   00C8 DD 71 FE      [19]  204 	ld	-2 (ix), c
   00CB DD 70 FF      [19]  205 	ld	-1 (ix), b
   00CE 2Ar00r00      [16]  206 	ld	hl, (_pvmem)
   00D1 DD 4E FE      [19]  207 	ld	c,-2 (ix)
   00D4 DD 46 FF      [19]  208 	ld	b,-1 (ix)
   00D7 C5            [11]  209 	push	bc
   00D8 E5            [11]  210 	push	hl
   00D9 3E 1E         [ 7]  211 	ld	a, #0x1e
   00DB F5            [11]  212 	push	af
   00DC 33            [ 6]  213 	inc	sp
   00DD D5            [11]  214 	push	de
   00DE 33            [ 6]  215 	inc	sp
   00DF 53            [ 4]  216 	ld	d, e
   00E0 DD 5E FD      [19]  217 	ld	e, -3 (ix)
   00E3 D5            [11]  218 	push	de
   00E4 DD 7E FC      [19]  219 	ld	a, -4 (ix)
   00E7 F5            [11]  220 	push	af
   00E8 33            [ 6]  221 	inc	sp
   00E9 CDr00r00      [17]  222 	call	_cpct_etm_drawTileBox2x4
   00EC DD F9         [10]  223 	ld	sp, ix
   00EE DD E1         [14]  224 	pop	ix
   00F0 C9            [10]  225 	ret
                            226 ;src/background.c:73: void background_restore_tiles_exact(u16 tx, u16 ty, u8 tw, u8 th) {
                            227 ;	---------------------------------
                            228 ; Function background_restore_tiles_exact
                            229 ; ---------------------------------
   00F1                     230 _background_restore_tiles_exact::
   00F1 DD E5         [15]  231 	push	ix
   00F3 DD 21 00 00   [14]  232 	ld	ix,#0
   00F7 DD 39         [15]  233 	add	ix,sp
                            234 ;src/background.c:75: pvmem, current_level->background_tilemap);
   00F9 2Ar00r00      [16]  235 	ld	hl, (_current_level)
   00FC 4E            [ 7]  236 	ld	c, (hl)
   00FD 23            [ 6]  237 	inc	hl
   00FE 46            [ 7]  238 	ld	b, (hl)
   00FF 2Ar00r00      [16]  239 	ld	hl, (_pvmem)
                            240 ;src/background.c:74: cpct_etm_drawTileBox2x4(tx, ty, tw, th, BACKGROUND_TILMAP_W, 
   0102 DD 5E 06      [19]  241 	ld	e, 6 (ix)
   0105 DD 56 04      [19]  242 	ld	d, 4 (ix)
   0108 C5            [11]  243 	push	bc
   0109 E5            [11]  244 	push	hl
   010A 3E 1E         [ 7]  245 	ld	a, #0x1e
   010C F5            [11]  246 	push	af
   010D 33            [ 6]  247 	inc	sp
   010E DD 66 09      [19]  248 	ld	h, 9 (ix)
   0111 DD 6E 08      [19]  249 	ld	l, 8 (ix)
   0114 E5            [11]  250 	push	hl
   0115 7B            [ 4]  251 	ld	a, e
   0116 F5            [11]  252 	push	af
   0117 33            [ 6]  253 	inc	sp
   0118 D5            [11]  254 	push	de
   0119 33            [ 6]  255 	inc	sp
   011A CDr00r00      [17]  256 	call	_cpct_etm_drawTileBox2x4
   011D DD E1         [14]  257 	pop	ix
   011F C9            [10]  258 	ret
                            259 ;src/background.c:80: void background_debug_box_wc(i16 tx, i16 ty, u8 width, u8 height)
                            260 ;	---------------------------------
                            261 ; Function background_debug_box_wc
                            262 ; ---------------------------------
   0120                     263 _background_debug_box_wc::
   0120 DD E5         [15]  264 	push	ix
   0122 DD 21 00 00   [14]  265 	ld	ix,#0
   0126 DD 39         [15]  266 	add	ix,sp
                            267 ;src/background.c:87: u8 tileX = (tx / 2) + 2;
   0128 DD 6E 04      [19]  268 	ld	l,4 (ix)
   012B DD 66 05      [19]  269 	ld	h,5 (ix)
   012E CB 7C         [ 8]  270 	bit	7, h
   0130 28 01         [12]  271 	jr	Z,00109$
   0132 23            [ 6]  272 	inc	hl
   0133                     273 00109$:
   0133 CB 2C         [ 8]  274 	sra	h
   0135 CB 1D         [ 8]  275 	rr	l
   0137 2C            [ 4]  276 	inc	l
   0138 2C            [ 4]  277 	inc	l
                            278 ;src/background.c:88: u8 tileY = (ty / 4) + 2;
   0139 DD 4E 06      [19]  279 	ld	c,6 (ix)
   013C DD 46 07      [19]  280 	ld	b,7 (ix)
   013F CB 78         [ 8]  281 	bit	7, b
   0141 28 03         [12]  282 	jr	Z,00110$
   0143 03            [ 6]  283 	inc	bc
   0144 03            [ 6]  284 	inc	bc
   0145 03            [ 6]  285 	inc	bc
   0146                     286 00110$:
   0146 CB 28         [ 8]  287 	sra	b
   0148 CB 19         [ 8]  288 	rr	c
   014A CB 28         [ 8]  289 	sra	b
   014C CB 19         [ 8]  290 	rr	c
   014E 0C            [ 4]  291 	inc	c
   014F 0C            [ 4]  292 	inc	c
                            293 ;src/background.c:89: u8 tileW = width / 2;
   0150 DD 5E 08      [19]  294 	ld	e, 8 (ix)
   0153 CB 3B         [ 8]  295 	srl	e
                            296 ;src/background.c:90: u8 tileH = height / 4;
   0155 DD 56 09      [19]  297 	ld	d, 9 (ix)
   0158 CB 3A         [ 8]  298 	srl	d
   015A CB 3A         [ 8]  299 	srl	d
                            300 ;src/background.c:93: if (height % 4 > 0)
   015C DD 7E 09      [19]  301 	ld	a, 9 (ix)
   015F E6 03         [ 7]  302 	and	a, #0x03
   0161 28 01         [12]  303 	jr	Z,00102$
                            304 ;src/background.c:95: tileH++;
   0163 14            [ 4]  305 	inc	d
   0164                     306 00102$:
                            307 ;src/background.c:99: if (width % 2 > 0)
   0164 DD CB 08 46   [20]  308 	bit	0, 8 (ix)
   0168 28 01         [12]  309 	jr	Z,00104$
                            310 ;src/background.c:101: tileW++;
   016A 1C            [ 4]  311 	inc	e
   016B                     312 00104$:
                            313 ;src/background.c:105: if (tx & 1 == 1)
   016B DD CB 04 46   [20]  314 	bit	0, 4 (ix)
   016F 28 01         [12]  315 	jr	Z,00106$
                            316 ;src/background.c:107: tileW += 1;
   0171 1C            [ 4]  317 	inc	e
   0172                     318 00106$:
                            319 ;src/background.c:111: tileY * TILE_H);
   0172 CB 21         [ 8]  320 	sla	c
   0174 CB 21         [ 8]  321 	sla	c
                            322 ;src/background.c:110: pvm = cpct_getScreenPtr(CPCT_VMEM_START, (tileX * TILE_W) + (4 * TILE_W),
   0176 7D            [ 4]  323 	ld	a, l
   0177 87            [ 4]  324 	add	a, a
   0178 C6 08         [ 7]  325 	add	a, #0x08
   017A 47            [ 4]  326 	ld	b, a
   017B D5            [11]  327 	push	de
   017C 79            [ 4]  328 	ld	a, c
   017D F5            [11]  329 	push	af
   017E 33            [ 6]  330 	inc	sp
   017F C5            [11]  331 	push	bc
   0180 33            [ 6]  332 	inc	sp
   0181 21 00 C0      [10]  333 	ld	hl, #0xc000
   0184 E5            [11]  334 	push	hl
   0185 CDr00r00      [17]  335 	call	_cpct_getScreenPtr
   0188 4D            [ 4]  336 	ld	c, l
   0189 44            [ 4]  337 	ld	b, h
   018A D1            [10]  338 	pop	de
                            339 ;src/background.c:113: cpct_drawSolidBox(pvm, 255, tileW * TILE_W, tileH + TILE_H);
   018B 14            [ 4]  340 	inc	d
   018C 14            [ 4]  341 	inc	d
   018D 14            [ 4]  342 	inc	d
   018E 14            [ 4]  343 	inc	d
   018F 7B            [ 4]  344 	ld	a, e
   0190 87            [ 4]  345 	add	a, a
   0191 5F            [ 4]  346 	ld	e, a
   0192 D5            [11]  347 	push	de
   0193 21 FF 00      [10]  348 	ld	hl, #0x00ff
   0196 E5            [11]  349 	push	hl
   0197 C5            [11]  350 	push	bc
   0198 CDr00r00      [17]  351 	call	_cpct_drawSolidBox
   019B DD E1         [14]  352 	pop	ix
   019D C9            [10]  353 	ret
                            354 	.area _CODE
                            355 	.area _INITIALIZER
                            356 	.area _CABS (ABS)
