                              1 ;--------------------------------------------------------
                              2 ; File Created by SDCC : free open source ANSI-C Compiler
                              3 ; Version 3.6.8 #9946 (Linux)
                              4 ;--------------------------------------------------------
                              5 	.module bat
                              6 	.optsdcc -mz80
                              7 	
                              8 ;--------------------------------------------------------
                              9 ; Public variables in this module
                             10 ;--------------------------------------------------------
                             11 	.globl _background_restore_world_coords
                             12 	.globl _cpct_getScreenPtr
                             13 	.globl _cpct_drawSpriteMasked
                             14 	.globl _cpct_drawSprite
                             15 	.globl _batW
                             16 	.globl _oldBatX
                             17 	.globl _batX
                             18 	.globl _batY
                             19 	.globl _bat_initialize
                             20 	.globl _bat_update
                             21 	.globl _bat_restore_background
                             22 	.globl _bat_draw
                             23 	.globl _bat_bounce_ball
                             24 ;--------------------------------------------------------
                             25 ; special function registers
                             26 ;--------------------------------------------------------
                             27 ;--------------------------------------------------------
                             28 ; ram data
                             29 ;--------------------------------------------------------
                             30 	.area _DATA
                             31 ;--------------------------------------------------------
                             32 ; ram data
                             33 ;--------------------------------------------------------
                             34 	.area _INITIALIZED
   0000                      35 _batY::
   0000                      36 	.ds 1
   0001                      37 _batX::
   0001                      38 	.ds 1
   0002                      39 _oldBatX::
   0002                      40 	.ds 1
   0003                      41 _batW::
   0003                      42 	.ds 1
                             43 ;--------------------------------------------------------
                             44 ; absolute external ram data
                             45 ;--------------------------------------------------------
                             46 	.area _DABS (ABS)
                             47 ;--------------------------------------------------------
                             48 ; global & static initialisations
                             49 ;--------------------------------------------------------
                             50 	.area _HOME
                             51 	.area _GSINIT
                             52 	.area _GSFINAL
                             53 	.area _GSINIT
                             54 ;--------------------------------------------------------
                             55 ; Home
                             56 ;--------------------------------------------------------
                             57 	.area _HOME
                             58 	.area _HOME
                             59 ;--------------------------------------------------------
                             60 ; code
                             61 ;--------------------------------------------------------
                             62 	.area _CODE
                             63 ;src/bat.c:34: void bat_initialize() {
                             64 ;	---------------------------------
                             65 ; Function bat_initialize
                             66 ; ---------------------------------
   0000                      67 _bat_initialize::
                             68 ;src/bat.c:35: batW = 8;
   0000 21r03r00      [10]   69 	ld	hl,#_batW + 0
   0003 36 08         [10]   70 	ld	(hl), #0x08
                             71 ;src/bat.c:36: batX = (PLAY_AREA_WIDTH- batW) / 2;
   0005 21r01r00      [10]   72 	ld	hl,#_batX + 0
   0008 36 16         [10]   73 	ld	(hl), #0x16
                             74 ;src/bat.c:37: batY = PLAY_AREA_HEIGHT - BAT_HEIGHT_PIXELS - BAT_BOTTOM_OFFSET_PIXELS;
   000A 21r00r00      [10]   75 	ld	hl,#_batY + 0
   000D 36 B0         [10]   76 	ld	(hl), #0xb0
                             77 ;src/bat.c:38: oldBatX = batX;
   000F 21r02r00      [10]   78 	ld	hl,#_oldBatX + 0
   0012 36 16         [10]   79 	ld	(hl), #0x16
   0014 C9            [10]   80 	ret
                             81 ;src/bat.c:42: void bat_update() {
                             82 ;	---------------------------------
                             83 ; Function bat_update
                             84 ; ---------------------------------
   0015                      85 _bat_update::
                             86 ;src/bat.c:45: oldBatX = batX;
   0015 21r01r00      [10]   87 	ld	hl,#_batX + 0
   0018 4E            [ 7]   88 	ld	c, (hl)
                             89 ;src/bat.c:43: if (key_left_is_pressed) {
   0019 3Ar00r00      [13]   90 	ld	a,(#_key_left_is_pressed + 0)
   001C B7            [ 4]   91 	or	a, a
   001D 28 0E         [12]   92 	jr	Z,00108$
                             93 ;src/bat.c:44: if (batX > 0) {
   001F 3Ar01r00      [13]   94 	ld	a,(#_batX + 0)
   0022 B7            [ 4]   95 	or	a, a
   0023 C8            [11]   96 	ret	Z
                             97 ;src/bat.c:45: oldBatX = batX;
   0024 21r02r00      [10]   98 	ld	hl,#_oldBatX + 0
   0027 71            [ 7]   99 	ld	(hl), c
                            100 ;src/bat.c:46: batX--;
   0028 21r01r00      [10]  101 	ld	hl, #_batX+0
   002B 35            [11]  102 	dec	(hl)
   002C C9            [10]  103 	ret
   002D                     104 00108$:
                            105 ;src/bat.c:48: } else if (key_right_is_pressed) {
   002D 3Ar00r00      [13]  106 	ld	a,(#_key_right_is_pressed + 0)
   0030 B7            [ 4]  107 	or	a, a
   0031 C8            [11]  108 	ret	Z
                            109 ;src/bat.c:49: if (batX < PLAY_AREA_WIDTH - batW) {
   0032 21r03r00      [10]  110 	ld	hl,#_batW + 0
   0035 5E            [ 7]  111 	ld	e, (hl)
   0036 16 00         [ 7]  112 	ld	d, #0x00
   0038 3E 34         [ 7]  113 	ld	a, #0x34
   003A 93            [ 4]  114 	sub	a, e
   003B 47            [ 4]  115 	ld	b, a
   003C 3E 00         [ 7]  116 	ld	a, #0x00
   003E 9A            [ 4]  117 	sbc	a, d
   003F 5F            [ 4]  118 	ld	e, a
   0040 3Ar01r00      [13]  119 	ld	a,(#_batX + 0)
   0043 16 00         [ 7]  120 	ld	d, #0x00
   0045 90            [ 4]  121 	sub	a, b
   0046 7A            [ 4]  122 	ld	a, d
   0047 9B            [ 4]  123 	sbc	a, e
   0048 E2r4Dr00      [10]  124 	jp	PO, 00128$
   004B EE 80         [ 7]  125 	xor	a, #0x80
   004D                     126 00128$:
   004D F0            [11]  127 	ret	P
                            128 ;src/bat.c:50: oldBatX = batX;
   004E 21r02r00      [10]  129 	ld	hl,#_oldBatX + 0
   0051 71            [ 7]  130 	ld	(hl), c
                            131 ;src/bat.c:51: batX++;
   0052 21r01r00      [10]  132 	ld	hl, #_batX+0
   0055 34            [11]  133 	inc	(hl)
   0056 C9            [10]  134 	ret
                            135 ;src/bat.c:56: void bat_restore_background() {
                            136 ;	---------------------------------
                            137 ; Function bat_restore_background
                            138 ; ---------------------------------
   0057                     139 _bat_restore_background::
                            140 ;src/bat.c:57: background_restore_world_coords(oldBatX, batY, batW, BAT_HEIGHT_PIXELS);
   0057 21r00r00      [10]  141 	ld	hl,#_batY + 0
   005A 5E            [ 7]  142 	ld	e, (hl)
   005B 16 00         [ 7]  143 	ld	d, #0x00
   005D 21r02r00      [10]  144 	ld	hl,#_oldBatX + 0
   0060 4E            [ 7]  145 	ld	c, (hl)
   0061 06 00         [ 7]  146 	ld	b, #0x00
   0063 3E 08         [ 7]  147 	ld	a, #0x08
   0065 F5            [11]  148 	push	af
   0066 33            [ 6]  149 	inc	sp
   0067 3Ar03r00      [13]  150 	ld	a, (_batW)
   006A F5            [11]  151 	push	af
   006B 33            [ 6]  152 	inc	sp
   006C D5            [11]  153 	push	de
   006D C5            [11]  154 	push	bc
   006E CDr00r00      [17]  155 	call	_background_restore_world_coords
   0071 21 06 00      [10]  156 	ld	hl, #6
   0074 39            [11]  157 	add	hl, sp
   0075 F9            [ 6]  158 	ld	sp, hl
   0076 C9            [10]  159 	ret
                            160 ;src/bat.c:60: void bat_draw()
                            161 ;	---------------------------------
                            162 ; Function bat_draw
                            163 ; ---------------------------------
   0077                     164 _bat_draw::
                            165 ;src/bat.c:64: svmem = cpct_getScreenPtr(CPCT_VMEM_START, W_2_S_X(batX), W_2_S_Y(batY));
   0077 3Ar00r00      [13]  166 	ld	a,(#_batY + 0)
   007A C6 08         [ 7]  167 	add	a, #0x08
   007C 57            [ 4]  168 	ld	d, a
   007D 3Ar01r00      [13]  169 	ld	a,(#_batX + 0)
   0080 C6 0C         [ 7]  170 	add	a, #0x0c
   0082 5F            [ 4]  171 	ld	e,a
   0083 D5            [11]  172 	push	de
   0084 21 00 C0      [10]  173 	ld	hl, #0xc000
   0087 E5            [11]  174 	push	hl
   0088 CDr00r00      [17]  175 	call	_cpct_getScreenPtr
   008B 4D            [ 4]  176 	ld	c, l
   008C 44            [ 4]  177 	ld	b, h
                            178 ;src/bat.c:67: cpct_drawSpriteMasked(sp_masked_bat_left, svmem, SP_BAT_SEG_W, SP_BAT_SEG_H);
   008D 59            [ 4]  179 	ld	e, c
   008E 50            [ 4]  180 	ld	d, b
   008F C5            [11]  181 	push	bc
   0090 21 02 08      [10]  182 	ld	hl, #0x0802
   0093 E5            [11]  183 	push	hl
   0094 D5            [11]  184 	push	de
   0095 21r00r00      [10]  185 	ld	hl, #_sp_masked_bat_left
   0098 E5            [11]  186 	push	hl
   0099 CDr00r00      [17]  187 	call	_cpct_drawSpriteMasked
   009C C1            [10]  188 	pop	bc
                            189 ;src/bat.c:69: cpct_drawSprite(sp_bat_mid, svmem + BAT_SEGMENT_WIDTH_BYTES, SP_BAT_MID_W, SP_BAT_MID_H);
   009D 59            [ 4]  190 	ld	e, c
   009E 50            [ 4]  191 	ld	d, b
   009F 13            [ 6]  192 	inc	de
   00A0 13            [ 6]  193 	inc	de
   00A1 C5            [11]  194 	push	bc
   00A2 21 02 08      [10]  195 	ld	hl, #0x0802
   00A5 E5            [11]  196 	push	hl
   00A6 D5            [11]  197 	push	de
   00A7 21r00r00      [10]  198 	ld	hl, #_sp_bat_mid
   00AA E5            [11]  199 	push	hl
   00AB CDr00r00      [17]  200 	call	_cpct_drawSprite
   00AE C1            [10]  201 	pop	bc
                            202 ;src/bat.c:70: cpct_drawSprite(sp_bat_mid, svmem + 2*BAT_SEGMENT_WIDTH_BYTES, SP_BAT_MID_W, SP_BAT_MID_H);
   00AF 21 04 00      [10]  203 	ld	hl, #0x0004
   00B2 09            [11]  204 	add	hl, bc
   00B3 C5            [11]  205 	push	bc
   00B4 11 02 08      [10]  206 	ld	de, #0x0802
   00B7 D5            [11]  207 	push	de
   00B8 E5            [11]  208 	push	hl
   00B9 21r00r00      [10]  209 	ld	hl, #_sp_bat_mid
   00BC E5            [11]  210 	push	hl
   00BD CDr00r00      [17]  211 	call	_cpct_drawSprite
   00C0 C1            [10]  212 	pop	bc
                            213 ;src/bat.c:72: cpct_drawSpriteMasked(sp_masked_bat_right, svmem+ 3*BAT_SEGMENT_WIDTH_BYTES, SP_BAT_SEG_W, SP_BAT_SEG_H);
   00C1 21 06 00      [10]  214 	ld	hl, #0x0006
   00C4 09            [11]  215 	add	hl, bc
   00C5 01r00r00      [10]  216 	ld	bc, #_sp_masked_bat_right+0
   00C8 11 02 08      [10]  217 	ld	de, #0x0802
   00CB D5            [11]  218 	push	de
   00CC E5            [11]  219 	push	hl
   00CD C5            [11]  220 	push	bc
   00CE CDr00r00      [17]  221 	call	_cpct_drawSpriteMasked
   00D1 C9            [10]  222 	ret
                            223 ;src/bat.c:81: BounceHits bat_bounce_ball(Ball * ball, i16 at_x, i16 at_y) 
                            224 ;	---------------------------------
                            225 ; Function bat_bounce_ball
                            226 ; ---------------------------------
   00D2                     227 _bat_bounce_ball::
   00D2 DD E5         [15]  228 	push	ix
   00D4 DD 21 00 00   [14]  229 	ld	ix,#0
   00D8 DD 39         [15]  230 	add	ix,sp
   00DA F5            [11]  231 	push	af
   00DB F5            [11]  232 	push	af
   00DC 3B            [ 6]  233 	dec	sp
                            234 ;src/bat.c:83: BounceHits bounces = BOUNCE_NONE;
   00DD DD 36 FB 00   [19]  235 	ld	-5 (ix), #0x00
                            236 ;src/bat.c:87: if (ball->dy > 0 &&
   00E1 DD 4E 04      [19]  237 	ld	c,4 (ix)
   00E4 DD 46 05      [19]  238 	ld	b,5 (ix)
   00E7 69            [ 4]  239 	ld	l, c
   00E8 60            [ 4]  240 	ld	h, b
   00E9 11 0B 00      [10]  241 	ld	de, #0x000b
   00EC 19            [11]  242 	add	hl, de
   00ED 5E            [ 7]  243 	ld	e, (hl)
   00EE 23            [ 6]  244 	inc	hl
   00EF 56            [ 7]  245 	ld	d, (hl)
   00F0 AF            [ 4]  246 	xor	a, a
   00F1 BB            [ 4]  247 	cp	a, e
   00F2 9A            [ 4]  248 	sbc	a, d
   00F3 E2rF8r00      [10]  249 	jp	PO, 00129$
   00F6 EE 80         [ 7]  250 	xor	a, #0x80
   00F8                     251 00129$:
   00F8 F2r7Dr01      [10]  252 	jp	P, 00102$
                            253 ;src/bat.c:88: (ball->x + BALL_WIDTH > batX && ball->x < batX + batW) &&
   00FB 69            [ 4]  254 	ld	l, c
   00FC 60            [ 4]  255 	ld	h, b
   00FD 23            [ 6]  256 	inc	hl
   00FE 7E            [ 7]  257 	ld	a, (hl)
   00FF DD 77 FC      [19]  258 	ld	-4 (ix), a
   0102 23            [ 6]  259 	inc	hl
   0103 7E            [ 7]  260 	ld	a, (hl)
   0104 DD 77 FD      [19]  261 	ld	-3 (ix), a
   0107 DD 7E FC      [19]  262 	ld	a, -4 (ix)
   010A C6 03         [ 7]  263 	add	a, #0x03
   010C DD 77 FE      [19]  264 	ld	-2 (ix), a
   010F DD 7E FD      [19]  265 	ld	a, -3 (ix)
   0112 CE 00         [ 7]  266 	adc	a, #0x00
   0114 DD 77 FF      [19]  267 	ld	-1 (ix), a
   0117 21r01r00      [10]  268 	ld	hl,#_batX + 0
   011A 5E            [ 7]  269 	ld	e, (hl)
   011B 16 00         [ 7]  270 	ld	d, #0x00
   011D 7B            [ 4]  271 	ld	a, e
   011E DD 96 FE      [19]  272 	sub	a, -2 (ix)
   0121 7A            [ 4]  273 	ld	a, d
   0122 DD 9E FF      [19]  274 	sbc	a, -1 (ix)
   0125 E2r2Ar01      [10]  275 	jp	PO, 00130$
   0128 EE 80         [ 7]  276 	xor	a, #0x80
   012A                     277 00130$:
   012A F2r7Dr01      [10]  278 	jp	P, 00102$
   012D FD 21r03r00   [14]  279 	ld	iy, #_batW
   0131 FD 6E 00      [19]  280 	ld	l, 0 (iy)
   0134 26 00         [ 7]  281 	ld	h, #0x00
   0136 19            [11]  282 	add	hl, de
   0137 DD 7E FC      [19]  283 	ld	a, -4 (ix)
   013A 95            [ 4]  284 	sub	a, l
   013B DD 7E FD      [19]  285 	ld	a, -3 (ix)
   013E 9C            [ 4]  286 	sbc	a, h
   013F E2r44r01      [10]  287 	jp	PO, 00131$
   0142 EE 80         [ 7]  288 	xor	a, #0x80
   0144                     289 00131$:
   0144 F2r7Dr01      [10]  290 	jp	P, 00102$
                            291 ;src/bat.c:89: (ball->y + BALL_HEIGHT > batY && ball->y < batY + SP_BAT_SEG_H))
   0147 69            [ 4]  292 	ld	l, c
   0148 60            [ 4]  293 	ld	h, b
   0149 23            [ 6]  294 	inc	hl
   014A 23            [ 6]  295 	inc	hl
   014B 23            [ 6]  296 	inc	hl
   014C 4E            [ 7]  297 	ld	c, (hl)
   014D 23            [ 6]  298 	inc	hl
   014E 46            [ 7]  299 	ld	b, (hl)
   014F 21 06 00      [10]  300 	ld	hl, #0x0006
   0152 09            [11]  301 	add	hl,bc
   0153 EB            [ 4]  302 	ex	de,hl
   0154 FD 21r00r00   [14]  303 	ld	iy, #_batY
   0158 FD 6E 00      [19]  304 	ld	l, 0 (iy)
   015B 26 00         [ 7]  305 	ld	h, #0x00
   015D 7D            [ 4]  306 	ld	a, l
   015E 93            [ 4]  307 	sub	a, e
   015F 7C            [ 4]  308 	ld	a, h
   0160 9A            [ 4]  309 	sbc	a, d
   0161 E2r66r01      [10]  310 	jp	PO, 00132$
   0164 EE 80         [ 7]  311 	xor	a, #0x80
   0166                     312 00132$:
   0166 F2r7Dr01      [10]  313 	jp	P, 00102$
   0169 11 08 00      [10]  314 	ld	de, #0x0008
   016C 19            [11]  315 	add	hl, de
   016D 79            [ 4]  316 	ld	a, c
   016E 95            [ 4]  317 	sub	a, l
   016F 78            [ 4]  318 	ld	a, b
   0170 9C            [ 4]  319 	sbc	a, h
   0171 E2r76r01      [10]  320 	jp	PO, 00133$
   0174 EE 80         [ 7]  321 	xor	a, #0x80
   0176                     322 00133$:
   0176 F2r7Dr01      [10]  323 	jp	P, 00102$
                            324 ;src/bat.c:91: bounces |= BOUNCE_Y;        
   0179 DD 36 FB 02   [19]  325 	ld	-5 (ix), #0x02
   017D                     326 00102$:
                            327 ;src/bat.c:94: return bounces;
   017D DD 6E FB      [19]  328 	ld	l, -5 (ix)
   0180 DD F9         [10]  329 	ld	sp, ix
   0182 DD E1         [14]  330 	pop	ix
   0184 C9            [10]  331 	ret
                            332 	.area _CODE
                            333 	.area _INITIALIZER
   0000                     334 __xinit__batY:
   0000 00                  335 	.db #0x00	; 0
   0001                     336 __xinit__batX:
   0001 00                  337 	.db #0x00	; 0
   0002                     338 __xinit__oldBatX:
   0002 00                  339 	.db #0x00	; 0
   0003                     340 __xinit__batW:
   0003 00                  341 	.db #0x00	; 0
                            342 	.area _CABS (ABS)
