                              1 ;--------------------------------------------------------
                              2 ; File Created by SDCC : free open source ANSI-C Compiler
                              3 ; Version 3.6.8 #9946 (Linux)
                              4 ;--------------------------------------------------------
                              5 	.module blocks
                              6 	.optsdcc -mz80
                              7 	
                              8 ;--------------------------------------------------------
                              9 ; Public variables in this module
                             10 ;--------------------------------------------------------
                             11 	.globl _background_debug_box_wc
                             12 	.globl _cpct_etm_drawTileBox2x4
                             13 	.globl _cpct_getScreenPtr
                             14 	.globl _blocks_remaining
                             15 	.globl _block_meta
                             16 	.globl _blocks_initialize
                             17 	.globl _blocks_draw
                             18 	.globl _blocks_restore_background
                             19 	.globl _blocks_bounce_ball
                             20 	.globl _is_ball_colliding_with_block
                             21 	.globl _get_metaData_at
                             22 	.globl _draw_current_blocks
                             23 	.globl _map_blocks_to_meta
                             24 	.globl _plant_tile_meta
                             25 ;--------------------------------------------------------
                             26 ; special function registers
                             27 ;--------------------------------------------------------
                             28 ;--------------------------------------------------------
                             29 ; ram data
                             30 ;--------------------------------------------------------
                             31 	.area _DATA
   0000                      32 _block_meta::
   0000                      33 	.ds 1092
   0444                      34 _blocks_remaining::
   0444                      35 	.ds 2
                             36 ;--------------------------------------------------------
                             37 ; ram data
                             38 ;--------------------------------------------------------
                             39 	.area _INITIALIZED
                             40 ;--------------------------------------------------------
                             41 ; absolute external ram data
                             42 ;--------------------------------------------------------
                             43 	.area _DABS (ABS)
                             44 ;--------------------------------------------------------
                             45 ; global & static initialisations
                             46 ;--------------------------------------------------------
                             47 	.area _HOME
                             48 	.area _GSINIT
                             49 	.area _GSFINAL
                             50 	.area _GSINIT
                             51 ;--------------------------------------------------------
                             52 ; Home
                             53 ;--------------------------------------------------------
                             54 	.area _HOME
                             55 	.area _HOME
                             56 ;--------------------------------------------------------
                             57 ; code
                             58 ;--------------------------------------------------------
                             59 	.area _CODE
                             60 ;src/blocks.c:38: void blocks_initialize(u8 is_restart)
                             61 ;	---------------------------------
                             62 ; Function blocks_initialize
                             63 ; ---------------------------------
   0000                      64 _blocks_initialize::
                             65 ;src/blocks.c:40: if (!is_restart)
   0000 21 02 00      [10]   66 	ld	hl, #2+0
   0003 39            [11]   67 	add	hl, sp
   0004 7E            [ 7]   68 	ld	a, (hl)
   0005 B7            [ 4]   69 	or	a, a
   0006 C2rA4r02      [10]   70 	jp	NZ,_draw_current_blocks
                             71 ;src/blocks.c:43: map_blocks_to_meta();
   0009 CDr2Cr03      [17]   72 	call	_map_blocks_to_meta
                             73 ;src/blocks.c:48: draw_current_blocks();
   000C C3rA4r02      [10]   74 	jp  _draw_current_blocks
                             75 ;src/blocks.c:51: void blocks_draw()
                             76 ;	---------------------------------
                             77 ; Function blocks_draw
                             78 ; ---------------------------------
   000F                      79 _blocks_draw::
                             80 ;src/blocks.c:53: }
   000F C9            [10]   81 	ret
                             82 ;src/blocks.c:55: void blocks_restore_background()
                             83 ;	---------------------------------
                             84 ; Function blocks_restore_background
                             85 ; ---------------------------------
   0010                      86 _blocks_restore_background::
                             87 ;src/blocks.c:57: }
   0010 C9            [10]   88 	ret
                             89 ;src/blocks.c:59: BounceHits blocks_bounce_ball(Ball *ball, i16 at_x, i16 at_y)
                             90 ;	---------------------------------
                             91 ; Function blocks_bounce_ball
                             92 ; ---------------------------------
   0011                      93 _blocks_bounce_ball::
   0011 DD E5         [15]   94 	push	ix
   0013 DD 21 00 00   [14]   95 	ld	ix,#0
   0017 DD 39         [15]   96 	add	ix,sp
   0019 F5            [11]   97 	push	af
   001A 3B            [ 6]   98 	dec	sp
                             99 ;src/blocks.c:66: if (W_2_S_Y(at_y) < BRICKS_MAP_PIXEL_TOP_SCR ||
   001B DD 7E 08      [19]  100 	ld	a, 8 (ix)
   001E C6 08         [ 7]  101 	add	a, #0x08
   0020 DD 77 FE      [19]  102 	ld	-2 (ix), a
   0023 DD 7E 09      [19]  103 	ld	a, 9 (ix)
   0026 CE 00         [ 7]  104 	adc	a, #0x00
   0028 DD 77 FF      [19]  105 	ld	-1 (ix), a
   002B DD 7E FE      [19]  106 	ld	a, -2 (ix)
   002E D6 18         [ 7]  107 	sub	a, #0x18
   0030 DD 7E FF      [19]  108 	ld	a, -1 (ix)
   0033 17            [ 4]  109 	rla
   0034 3F            [ 4]  110 	ccf
   0035 1F            [ 4]  111 	rra
   0036 DE 80         [ 7]  112 	sbc	a, #0x80
   0038 38 12         [12]  113 	jr	C,00101$
                            114 ;src/blocks.c:67: W_2_S_Y(at_y) > BRICKS_MAP_PIXEL_BOTTOM_SCR)
   003A 3E 88         [ 7]  115 	ld	a, #0x88
   003C DD BE FE      [19]  116 	cp	a, -2 (ix)
   003F 3E 00         [ 7]  117 	ld	a, #0x00
   0041 DD 9E FF      [19]  118 	sbc	a, -1 (ix)
   0044 E2r49r00      [10]  119 	jp	PO, 00124$
   0047 EE 80         [ 7]  120 	xor	a, #0x80
   0049                     121 00124$:
   0049 F2r51r00      [10]  122 	jp	P, 00102$
   004C                     123 00101$:
                            124 ;src/blocks.c:69: return BOUNCE_NONE;
   004C 2E 00         [ 7]  125 	ld	l, #0x00
   004E C3rA7r01      [10]  126 	jp	00110$
   0051                     127 00102$:
                            128 ;src/blocks.c:72: if (ball->dy < 0)
   0051 DD 7E 04      [19]  129 	ld	a, 4 (ix)
   0054 DD 77 FE      [19]  130 	ld	-2 (ix), a
   0057 DD 7E 05      [19]  131 	ld	a, 5 (ix)
   005A DD 77 FF      [19]  132 	ld	-1 (ix), a
   005D DD 6E FE      [19]  133 	ld	l,-2 (ix)
   0060 DD 66 FF      [19]  134 	ld	h,-1 (ix)
   0063 11 0B 00      [10]  135 	ld	de, #0x000b
   0066 19            [11]  136 	add	hl, de
   0067 7E            [ 7]  137 	ld	a, (hl)
   0068 23            [ 6]  138 	inc	hl
   0069 66            [ 7]  139 	ld	h, (hl)
                            140 ;src/blocks.c:76: bounces |= is_ball_colliding_with_block(ball, at_x + 3, at_y, BOUNCE_Y);
   006A DD 4E 06      [19]  141 	ld	c,6 (ix)
   006D DD 46 07      [19]  142 	ld	b,7 (ix)
   0070 03            [ 6]  143 	inc	bc
   0071 03            [ 6]  144 	inc	bc
   0072 03            [ 6]  145 	inc	bc
                            146 ;src/blocks.c:81: bounces |= is_ball_colliding_with_block(ball, at_x, at_y + 6, BOUNCE_Y);
   0073 DD 7E 08      [19]  147 	ld	a, 8 (ix)
   0076 C6 06         [ 7]  148 	add	a, #0x06
   0078 5F            [ 4]  149 	ld	e, a
   0079 DD 7E 09      [19]  150 	ld	a, 9 (ix)
   007C CE 00         [ 7]  151 	adc	a, #0x00
   007E 57            [ 4]  152 	ld	d, a
                            153 ;src/blocks.c:72: if (ball->dy < 0)
   007F CB 7C         [ 8]  154 	bit	7, h
   0081 28 4E         [12]  155 	jr	Z,00105$
                            156 ;src/blocks.c:75: bounces |= is_ball_colliding_with_block(ball, at_x, at_y, BOUNCE_Y);
   0083 C5            [11]  157 	push	bc
   0084 D5            [11]  158 	push	de
   0085 3E 02         [ 7]  159 	ld	a, #0x02
   0087 F5            [11]  160 	push	af
   0088 33            [ 6]  161 	inc	sp
   0089 DD 6E 08      [19]  162 	ld	l,8 (ix)
   008C DD 66 09      [19]  163 	ld	h,9 (ix)
   008F E5            [11]  164 	push	hl
   0090 DD 6E 06      [19]  165 	ld	l,6 (ix)
   0093 DD 66 07      [19]  166 	ld	h,7 (ix)
   0096 E5            [11]  167 	push	hl
   0097 DD 6E FE      [19]  168 	ld	l,-2 (ix)
   009A DD 66 FF      [19]  169 	ld	h,-1 (ix)
   009D E5            [11]  170 	push	hl
   009E CDrACr01      [17]  171 	call	_is_ball_colliding_with_block
   00A1 F1            [10]  172 	pop	af
   00A2 F1            [10]  173 	pop	af
   00A3 F1            [10]  174 	pop	af
   00A4 33            [ 6]  175 	inc	sp
   00A5 D1            [10]  176 	pop	de
   00A6 C1            [10]  177 	pop	bc
   00A7 DD 75 FD      [19]  178 	ld	-3 (ix), l
                            179 ;src/blocks.c:76: bounces |= is_ball_colliding_with_block(ball, at_x + 3, at_y, BOUNCE_Y);
   00AA C5            [11]  180 	push	bc
   00AB D5            [11]  181 	push	de
   00AC 3E 02         [ 7]  182 	ld	a, #0x02
   00AE F5            [11]  183 	push	af
   00AF 33            [ 6]  184 	inc	sp
   00B0 DD 6E 08      [19]  185 	ld	l,8 (ix)
   00B3 DD 66 09      [19]  186 	ld	h,9 (ix)
   00B6 E5            [11]  187 	push	hl
   00B7 C5            [11]  188 	push	bc
   00B8 DD 6E 04      [19]  189 	ld	l,4 (ix)
   00BB DD 66 05      [19]  190 	ld	h,5 (ix)
   00BE E5            [11]  191 	push	hl
   00BF CDrACr01      [17]  192 	call	_is_ball_colliding_with_block
   00C2 F1            [10]  193 	pop	af
   00C3 F1            [10]  194 	pop	af
   00C4 F1            [10]  195 	pop	af
   00C5 33            [ 6]  196 	inc	sp
   00C6 D1            [10]  197 	pop	de
   00C7 C1            [10]  198 	pop	bc
   00C8 DD 7E FD      [19]  199 	ld	a, -3 (ix)
   00CB B5            [ 4]  200 	or	a, l
   00CC DD 77 FD      [19]  201 	ld	-3 (ix), a
   00CF 18 3D         [12]  202 	jr	00106$
   00D1                     203 00105$:
                            204 ;src/blocks.c:81: bounces |= is_ball_colliding_with_block(ball, at_x, at_y + 6, BOUNCE_Y);
   00D1 C5            [11]  205 	push	bc
   00D2 D5            [11]  206 	push	de
   00D3 3E 02         [ 7]  207 	ld	a, #0x02
   00D5 F5            [11]  208 	push	af
   00D6 33            [ 6]  209 	inc	sp
   00D7 D5            [11]  210 	push	de
   00D8 DD 6E 06      [19]  211 	ld	l,6 (ix)
   00DB DD 66 07      [19]  212 	ld	h,7 (ix)
   00DE E5            [11]  213 	push	hl
   00DF DD 6E FE      [19]  214 	ld	l,-2 (ix)
   00E2 DD 66 FF      [19]  215 	ld	h,-1 (ix)
   00E5 E5            [11]  216 	push	hl
   00E6 CDrACr01      [17]  217 	call	_is_ball_colliding_with_block
   00E9 F1            [10]  218 	pop	af
   00EA F1            [10]  219 	pop	af
   00EB F1            [10]  220 	pop	af
   00EC 33            [ 6]  221 	inc	sp
   00ED D1            [10]  222 	pop	de
   00EE C1            [10]  223 	pop	bc
                            224 ;src/blocks.c:82: bounces |= is_ball_colliding_with_block(ball, at_x + 3, at_y + 6, BOUNCE_Y);
   00EF E5            [11]  225 	push	hl
   00F0 C5            [11]  226 	push	bc
   00F1 D5            [11]  227 	push	de
   00F2 3E 02         [ 7]  228 	ld	a, #0x02
   00F4 F5            [11]  229 	push	af
   00F5 33            [ 6]  230 	inc	sp
   00F6 D5            [11]  231 	push	de
   00F7 C5            [11]  232 	push	bc
   00F8 DD 6E 04      [19]  233 	ld	l,4 (ix)
   00FB DD 66 05      [19]  234 	ld	h,5 (ix)
   00FE E5            [11]  235 	push	hl
   00FF CDrACr01      [17]  236 	call	_is_ball_colliding_with_block
   0102 F1            [10]  237 	pop	af
   0103 F1            [10]  238 	pop	af
   0104 F1            [10]  239 	pop	af
   0105 33            [ 6]  240 	inc	sp
   0106 7D            [ 4]  241 	ld	a, l
   0107 D1            [10]  242 	pop	de
   0108 C1            [10]  243 	pop	bc
   0109 E1            [10]  244 	pop	hl
   010A B5            [ 4]  245 	or	a, l
   010B DD 77 FD      [19]  246 	ld	-3 (ix), a
   010E                     247 00106$:
                            248 ;src/blocks.c:85: if (ball->dx < 0)
   010E DD 6E FE      [19]  249 	ld	l,-2 (ix)
   0111 DD 66 FF      [19]  250 	ld	h,-1 (ix)
   0114 C5            [11]  251 	push	bc
   0115 01 09 00      [10]  252 	ld	bc, #0x0009
   0118 09            [11]  253 	add	hl, bc
   0119 C1            [10]  254 	pop	bc
   011A 7E            [ 7]  255 	ld	a, (hl)
   011B 23            [ 6]  256 	inc	hl
   011C CB 7E         [12]  257 	bit	7, (hl)
   011E 28 49         [12]  258 	jr	Z,00108$
                            259 ;src/blocks.c:88: bounces |= is_ball_colliding_with_block(ball, at_x, at_y, BOUNCE_X);
   0120 D5            [11]  260 	push	de
   0121 3E 01         [ 7]  261 	ld	a, #0x01
   0123 F5            [11]  262 	push	af
   0124 33            [ 6]  263 	inc	sp
   0125 DD 6E 08      [19]  264 	ld	l,8 (ix)
   0128 DD 66 09      [19]  265 	ld	h,9 (ix)
   012B E5            [11]  266 	push	hl
   012C DD 6E 06      [19]  267 	ld	l,6 (ix)
   012F DD 66 07      [19]  268 	ld	h,7 (ix)
   0132 E5            [11]  269 	push	hl
   0133 DD 6E 04      [19]  270 	ld	l,4 (ix)
   0136 DD 66 05      [19]  271 	ld	h,5 (ix)
   0139 E5            [11]  272 	push	hl
   013A CDrACr01      [17]  273 	call	_is_ball_colliding_with_block
   013D F1            [10]  274 	pop	af
   013E F1            [10]  275 	pop	af
   013F F1            [10]  276 	pop	af
   0140 33            [ 6]  277 	inc	sp
   0141 D1            [10]  278 	pop	de
   0142 DD 7E FD      [19]  279 	ld	a, -3 (ix)
   0145 B5            [ 4]  280 	or	a, l
   0146 DD 77 FE      [19]  281 	ld	-2 (ix), a
                            282 ;src/blocks.c:89: bounces |= is_ball_colliding_with_block(ball, at_x, at_y + 6, BOUNCE_X);
   0149 3E 01         [ 7]  283 	ld	a, #0x01
   014B F5            [11]  284 	push	af
   014C 33            [ 6]  285 	inc	sp
   014D D5            [11]  286 	push	de
   014E DD 6E 06      [19]  287 	ld	l,6 (ix)
   0151 DD 66 07      [19]  288 	ld	h,7 (ix)
   0154 E5            [11]  289 	push	hl
   0155 DD 6E 04      [19]  290 	ld	l,4 (ix)
   0158 DD 66 05      [19]  291 	ld	h,5 (ix)
   015B E5            [11]  292 	push	hl
   015C CDrACr01      [17]  293 	call	_is_ball_colliding_with_block
   015F F1            [10]  294 	pop	af
   0160 F1            [10]  295 	pop	af
   0161 F1            [10]  296 	pop	af
   0162 33            [ 6]  297 	inc	sp
   0163 DD 7E FE      [19]  298 	ld	a, -2 (ix)
   0166 B5            [ 4]  299 	or	a, l
   0167 18 3D         [12]  300 	jr	00109$
   0169                     301 00108$:
                            302 ;src/blocks.c:94: bounces |= is_ball_colliding_with_block(ball, at_x + 3, at_y, BOUNCE_X);
   0169 C5            [11]  303 	push	bc
   016A D5            [11]  304 	push	de
   016B 3E 01         [ 7]  305 	ld	a, #0x01
   016D F5            [11]  306 	push	af
   016E 33            [ 6]  307 	inc	sp
   016F DD 6E 08      [19]  308 	ld	l,8 (ix)
   0172 DD 66 09      [19]  309 	ld	h,9 (ix)
   0175 E5            [11]  310 	push	hl
   0176 C5            [11]  311 	push	bc
   0177 DD 6E 04      [19]  312 	ld	l,4 (ix)
   017A DD 66 05      [19]  313 	ld	h,5 (ix)
   017D E5            [11]  314 	push	hl
   017E CDrACr01      [17]  315 	call	_is_ball_colliding_with_block
   0181 F1            [10]  316 	pop	af
   0182 F1            [10]  317 	pop	af
   0183 F1            [10]  318 	pop	af
   0184 33            [ 6]  319 	inc	sp
   0185 D1            [10]  320 	pop	de
   0186 C1            [10]  321 	pop	bc
   0187 DD 7E FD      [19]  322 	ld	a, -3 (ix)
   018A B5            [ 4]  323 	or	a, l
   018B DD 77 FE      [19]  324 	ld	-2 (ix), a
                            325 ;src/blocks.c:95: bounces |= is_ball_colliding_with_block(ball, at_x + 3, at_y + 6, BOUNCE_X);
   018E 3E 01         [ 7]  326 	ld	a, #0x01
   0190 F5            [11]  327 	push	af
   0191 33            [ 6]  328 	inc	sp
   0192 D5            [11]  329 	push	de
   0193 C5            [11]  330 	push	bc
   0194 DD 6E 04      [19]  331 	ld	l,4 (ix)
   0197 DD 66 05      [19]  332 	ld	h,5 (ix)
   019A E5            [11]  333 	push	hl
   019B CDrACr01      [17]  334 	call	_is_ball_colliding_with_block
   019E F1            [10]  335 	pop	af
   019F F1            [10]  336 	pop	af
   01A0 F1            [10]  337 	pop	af
   01A1 33            [ 6]  338 	inc	sp
   01A2 DD 7E FE      [19]  339 	ld	a, -2 (ix)
   01A5 B5            [ 4]  340 	or	a, l
   01A6                     341 00109$:
                            342 ;src/blocks.c:98: return bounces;
   01A6 6F            [ 4]  343 	ld	l, a
   01A7                     344 00110$:
   01A7 DD F9         [10]  345 	ld	sp, ix
   01A9 DD E1         [14]  346 	pop	ix
   01AB C9            [10]  347 	ret
                            348 ;src/blocks.c:105: BounceHits is_ball_colliding_with_block(Ball *ball, i16 wx, i16 wy, BounceHits bounceType)
                            349 ;	---------------------------------
                            350 ; Function is_ball_colliding_with_block
                            351 ; ---------------------------------
   01AC                     352 _is_ball_colliding_with_block::
   01AC DD E5         [15]  353 	push	ix
   01AE DD 21 00 00   [14]  354 	ld	ix,#0
   01B2 DD 39         [15]  355 	add	ix,sp
                            356 ;src/blocks.c:107: BounceHits bounces = BOUNCE_NONE;
   01B4 0E 00         [ 7]  357 	ld	c, #0x00
                            358 ;src/blocks.c:110: meta = get_metaData_at(wx, wy);
   01B6 C5            [11]  359 	push	bc
   01B7 DD 6E 08      [19]  360 	ld	l,8 (ix)
   01BA DD 66 09      [19]  361 	ld	h,9 (ix)
   01BD E5            [11]  362 	push	hl
   01BE DD 6E 06      [19]  363 	ld	l,6 (ix)
   01C1 DD 66 07      [19]  364 	ld	h,7 (ix)
   01C4 E5            [11]  365 	push	hl
   01C5 CDr1Cr02      [17]  366 	call	_get_metaData_at
   01C8 F1            [10]  367 	pop	af
   01C9 F1            [10]  368 	pop	af
   01CA EB            [ 4]  369 	ex	de,hl
   01CB C1            [10]  370 	pop	bc
                            371 ;src/blocks.c:111: if (meta)
   01CC 7A            [ 4]  372 	ld	a, d
   01CD B3            [ 4]  373 	or	a,e
   01CE 28 48         [12]  374 	jr	Z,00107$
                            375 ;src/blocks.c:113: if (meta->remaining_hits != INDESTRUCTABLE) {
   01D0 6B            [ 4]  376 	ld	l, e
   01D1 62            [ 4]  377 	ld	h, d
   01D2 23            [ 6]  378 	inc	hl
   01D3 23            [ 6]  379 	inc	hl
   01D4 23            [ 6]  380 	inc	hl
   01D5 4E            [ 7]  381 	ld	c, (hl)
   01D6 79            [ 4]  382 	ld	a, c
   01D7 3C            [ 4]  383 	inc	a
   01D8 28 14         [12]  384 	jr	Z,00105$
                            385 ;src/blocks.c:114: if (meta->remaining_hits > 1) {
   01DA 3E 01         [ 7]  386 	ld	a, #0x01
   01DC 91            [ 4]  387 	sub	a, c
   01DD 30 04         [12]  388 	jr	NC,00102$
                            389 ;src/blocks.c:115: meta->remaining_hits -= 1;
   01DF 0D            [ 4]  390 	dec	c
   01E0 71            [ 7]  391 	ld	(hl), c
   01E1 18 0B         [12]  392 	jr	00105$
   01E3                     393 00102$:
                            394 ;src/blocks.c:117: meta->remaining_hits = 0;
   01E3 36 00         [10]  395 	ld	(hl), #0x00
                            396 ;src/blocks.c:118: meta->is_active = 0;
   01E5 AF            [ 4]  397 	xor	a, a
   01E6 12            [ 7]  398 	ld	(de), a
                            399 ;src/blocks.c:119: blocks_remaining -= 1;
   01E7 2Ar44r04      [16]  400 	ld	hl, (_blocks_remaining)
   01EA 2B            [ 6]  401 	dec	hl
   01EB 22r44r04      [16]  402 	ld	(_blocks_remaining), hl
   01EE                     403 00105$:
                            404 ;src/blocks.c:125: (meta->block_tile_y * TILE_H) + 24, 
   01EE D5            [11]  405 	push	de
   01EF FD E1         [14]  406 	pop	iy
   01F1 FD 6E 05      [19]  407 	ld	l, 5 (iy)
   01F4 26 00         [ 7]  408 	ld	h, #0x00
   01F6 29            [11]  409 	add	hl, hl
   01F7 29            [11]  410 	add	hl, hl
   01F8 01 18 00      [10]  411 	ld	bc,#0x0018
   01FB 09            [11]  412 	add	hl,bc
   01FC 4D            [ 4]  413 	ld	c, l
   01FD 44            [ 4]  414 	ld	b, h
                            415 ;src/blocks.c:124: background_debug_box_wc((meta->block_tile_x) * TILE_W,
   01FE D5            [11]  416 	push	de
   01FF FD E1         [14]  417 	pop	iy
   0201 FD 6E 04      [19]  418 	ld	l, 4 (iy)
   0204 26 00         [ 7]  419 	ld	h, #0x00
   0206 29            [11]  420 	add	hl, hl
   0207 11 03 06      [10]  421 	ld	de, #0x0603
   020A D5            [11]  422 	push	de
   020B C5            [11]  423 	push	bc
   020C E5            [11]  424 	push	hl
   020D CDr00r00      [17]  425 	call	_background_debug_box_wc
   0210 21 06 00      [10]  426 	ld	hl, #6
   0213 39            [11]  427 	add	hl, sp
   0214 F9            [ 6]  428 	ld	sp, hl
                            429 ;src/blocks.c:131: bounces = bounceType;
   0215 DD 4E 0A      [19]  430 	ld	c, 10 (ix)
   0218                     431 00107$:
                            432 ;src/blocks.c:134: return bounces;
   0218 69            [ 4]  433 	ld	l, c
   0219 DD E1         [14]  434 	pop	ix
   021B C9            [10]  435 	ret
                            436 ;src/blocks.c:137: BlockMeta *get_metaData_at(i16 wx, i16 wy)
                            437 ;	---------------------------------
                            438 ; Function get_metaData_at
                            439 ; ---------------------------------
   021C                     440 _get_metaData_at::
   021C DD E5         [15]  441 	push	ix
   021E DD 21 00 00   [14]  442 	ld	ix,#0
   0222 DD 39         [15]  443 	add	ix,sp
                            444 ;src/blocks.c:145: tx = (wx / 2);
   0224 DD 5E 04      [19]  445 	ld	e,4 (ix)
   0227 DD 56 05      [19]  446 	ld	d,5 (ix)
   022A CB 7A         [ 8]  447 	bit	7, d
   022C 28 01         [12]  448 	jr	Z,00108$
   022E 13            [ 6]  449 	inc	de
   022F                     450 00108$:
   022F CB 2A         [ 8]  451 	sra	d
   0231 CB 1B         [ 8]  452 	rr	e
                            453 ;src/blocks.c:149: ty = ((wy) / 4) - 4;
   0233 DD 4E 06      [19]  454 	ld	c,6 (ix)
   0236 DD 46 07      [19]  455 	ld	b,7 (ix)
   0239 CB 78         [ 8]  456 	bit	7, b
   023B 28 03         [12]  457 	jr	Z,00109$
   023D 03            [ 6]  458 	inc	bc
   023E 03            [ 6]  459 	inc	bc
   023F 03            [ 6]  460 	inc	bc
   0240                     461 00109$:
   0240 CB 28         [ 8]  462 	sra	b
   0242 CB 19         [ 8]  463 	rr	c
   0244 CB 28         [ 8]  464 	sra	b
   0246 CB 19         [ 8]  465 	rr	c
   0248 79            [ 4]  466 	ld	a, c
   0249 C6 FC         [ 7]  467 	add	a, #0xfc
   024B 6F            [ 4]  468 	ld	l, a
   024C 78            [ 4]  469 	ld	a, b
   024D CE FF         [ 7]  470 	adc	a, #0xff
   024F 67            [ 4]  471 	ld	h, a
                            472 ;src/blocks.c:153: mx = tx / 2;
   0250 4B            [ 4]  473 	ld	c, e
   0251 42            [ 4]  474 	ld	b, d
   0252 CB 7A         [ 8]  475 	bit	7, d
   0254 28 03         [12]  476 	jr	Z,00110$
   0256 4B            [ 4]  477 	ld	c, e
   0257 42            [ 4]  478 	ld	b, d
   0258 03            [ 6]  479 	inc	bc
   0259                     480 00110$:
   0259 CB 28         [ 8]  481 	sra	b
   025B CB 19         [ 8]  482 	rr	c
                            483 ;src/blocks.c:154: my = ty / 2;
   025D 5D            [ 4]  484 	ld	e, l
   025E 54            [ 4]  485 	ld	d, h
   025F CB 7C         [ 8]  486 	bit	7, h
   0261 28 02         [12]  487 	jr	Z,00111$
   0263 EB            [ 4]  488 	ex	de,hl
   0264 13            [ 6]  489 	inc	de
   0265                     490 00111$:
   0265 CB 2A         [ 8]  491 	sra	d
   0267 CB 1B         [ 8]  492 	rr	e
                            493 ;src/blocks.c:158: if ((mx >= BLOCKS_MAP_W / 2) || (my >= BLOCKS_MAP_H / 2))
   0269 79            [ 4]  494 	ld	a, c
   026A D6 0D         [ 7]  495 	sub	a, #0x0d
   026C 78            [ 4]  496 	ld	a, b
   026D 17            [ 4]  497 	rla
   026E 3F            [ 4]  498 	ccf
   026F 1F            [ 4]  499 	rra
   0270 DE 80         [ 7]  500 	sbc	a, #0x80
   0272 30 0B         [12]  501 	jr	NC,00101$
   0274 7B            [ 4]  502 	ld	a, e
   0275 D6 0E         [ 7]  503 	sub	a, #0x0e
   0277 7A            [ 4]  504 	ld	a, d
   0278 17            [ 4]  505 	rla
   0279 3F            [ 4]  506 	ccf
   027A 1F            [ 4]  507 	rra
   027B DE 80         [ 7]  508 	sbc	a, #0x80
   027D 38 05         [12]  509 	jr	C,00102$
   027F                     510 00101$:
                            511 ;src/blocks.c:160: return BOUNCE_NONE;
   027F 21 00 00      [10]  512 	ld	hl, #0x0000
   0282 18 1D         [12]  513 	jr	00106$
   0284                     514 00102$:
                            515 ;src/blocks.c:163: meta = &block_meta[mx][my];
   0284 69            [ 4]  516 	ld	l, c
   0285 60            [ 4]  517 	ld	h, b
   0286 29            [11]  518 	add	hl, hl
   0287 29            [11]  519 	add	hl, hl
   0288 09            [11]  520 	add	hl, bc
   0289 29            [11]  521 	add	hl, hl
   028A 29            [11]  522 	add	hl, hl
   028B 09            [11]  523 	add	hl, bc
   028C 29            [11]  524 	add	hl, hl
   028D 29            [11]  525 	add	hl, hl
   028E 01r00r00      [10]  526 	ld	bc,#_block_meta
   0291 09            [11]  527 	add	hl,bc
   0292 4D            [ 4]  528 	ld	c, l
   0293 44            [ 4]  529 	ld	b, h
   0294 6B            [ 4]  530 	ld	l, e
   0295 62            [ 4]  531 	ld	h, d
   0296 29            [11]  532 	add	hl, hl
   0297 19            [11]  533 	add	hl, de
   0298 29            [11]  534 	add	hl, hl
   0299 09            [11]  535 	add	hl, bc
                            536 ;src/blocks.c:164: if (meta->is_active)
   029A 7E            [ 7]  537 	ld	a, (hl)
   029B B7            [ 4]  538 	or	a, a
                            539 ;src/blocks.c:166: return meta;
   029C 20 03         [12]  540 	jr	NZ,00106$
                            541 ;src/blocks.c:168: return NULL;
   029E 21 00 00      [10]  542 	ld	hl, #0x0000
   02A1                     543 00106$:
   02A1 DD E1         [14]  544 	pop	ix
   02A3 C9            [10]  545 	ret
                            546 ;src/blocks.c:171: void draw_current_blocks()
                            547 ;	---------------------------------
                            548 ; Function draw_current_blocks
                            549 ; ---------------------------------
   02A4                     550 _draw_current_blocks::
   02A4 DD E5         [15]  551 	push	ix
   02A6 DD 21 00 00   [14]  552 	ld	ix,#0
   02AA DD 39         [15]  553 	add	ix,sp
   02AC F5            [11]  554 	push	af
   02AD 3B            [ 6]  555 	dec	sp
                            556 ;src/blocks.c:173: u8 *pvmem = cpct_getScreenPtr(CPCT_VMEM_START, W_2_S_X(0),
   02AE 21 0C 18      [10]  557 	ld	hl, #0x180c
   02B1 E5            [11]  558 	push	hl
   02B2 21 00 C0      [10]  559 	ld	hl, #0xc000
   02B5 E5            [11]  560 	push	hl
   02B6 CDr00r00      [17]  561 	call	_cpct_getScreenPtr
   02B9 EB            [ 4]  562 	ex	de,hl
                            563 ;src/blocks.c:175: for (u8 y = 0; y < BLOCKS_MAP_H / 2; y++)
   02BA 0E 00         [ 7]  564 	ld	c, #0x00
   02BC                     565 00109$:
                            566 ;src/blocks.c:177: for (u8 x = 0; x < BLOCKS_MAP_W / 2; x++)
   02BC 79            [ 4]  567 	ld	a,c
   02BD FE 0E         [ 7]  568 	cp	a,#0x0e
   02BF 30 66         [12]  569 	jr	NC,00111$
   02C1 87            [ 4]  570 	add	a, a
   02C2 DD 77 FE      [19]  571 	ld	-2 (ix), a
   02C5 79            [ 4]  572 	ld	a, c
   02C6 87            [ 4]  573 	add	a, a
   02C7 81            [ 4]  574 	add	a, c
   02C8 87            [ 4]  575 	add	a, a
   02C9 DD 77 FF      [19]  576 	ld	-1 (ix), a
   02CC 06 00         [ 7]  577 	ld	b, #0x00
   02CE                     578 00106$:
   02CE 78            [ 4]  579 	ld	a, b
   02CF D6 0D         [ 7]  580 	sub	a, #0x0d
   02D1 30 51         [12]  581 	jr	NC,00110$
                            582 ;src/blocks.c:179: BlockMeta *meta = &block_meta[x][y];
   02D3 D5            [11]  583 	push	de
   02D4 58            [ 4]  584 	ld	e,b
   02D5 16 00         [ 7]  585 	ld	d,#0x00
   02D7 6B            [ 4]  586 	ld	l, e
   02D8 62            [ 4]  587 	ld	h, d
   02D9 29            [11]  588 	add	hl, hl
   02DA 29            [11]  589 	add	hl, hl
   02DB 19            [11]  590 	add	hl, de
   02DC 29            [11]  591 	add	hl, hl
   02DD 29            [11]  592 	add	hl, hl
   02DE 19            [11]  593 	add	hl, de
   02DF 29            [11]  594 	add	hl, hl
   02E0 29            [11]  595 	add	hl, hl
   02E1 D1            [10]  596 	pop	de
   02E2 3Er00         [ 7]  597 	ld	a, #<(_block_meta)
   02E4 85            [ 4]  598 	add	a, l
   02E5 6F            [ 4]  599 	ld	l, a
   02E6 3Es00         [ 7]  600 	ld	a, #>(_block_meta)
   02E8 8C            [ 4]  601 	adc	a, h
   02E9 67            [ 4]  602 	ld	h, a
   02EA 7D            [ 4]  603 	ld	a, l
   02EB DD 86 FF      [19]  604 	add	a, -1 (ix)
   02EE 6F            [ 4]  605 	ld	l, a
   02EF 7C            [ 4]  606 	ld	a, h
   02F0 CE 00         [ 7]  607 	adc	a, #0x00
   02F2 67            [ 4]  608 	ld	h, a
                            609 ;src/blocks.c:181: if (meta->is_active)
   02F3 7E            [ 7]  610 	ld	a, (hl)
   02F4 B7            [ 4]  611 	or	a, a
   02F5 28 2A         [12]  612 	jr	Z,00107$
                            613 ;src/blocks.c:184: current_level->blocks_tilemap);
   02F7 2Ar00r00      [16]  614 	ld	hl, (_current_level)
   02FA 23            [ 6]  615 	inc	hl
   02FB 23            [ 6]  616 	inc	hl
   02FC 7E            [ 7]  617 	ld	a, (hl)
   02FD 23            [ 6]  618 	inc	hl
   02FE 66            [ 7]  619 	ld	h, (hl)
   02FF 6F            [ 4]  620 	ld	l, a
                            621 ;src/blocks.c:183: cpct_etm_drawTileBox2x4(x * 2, y * 2, 2, 2, BLOCKS_MAP_W, pvmem,
   0300 D5            [11]  622 	push	de
   0301 FD E1         [14]  623 	pop	iy
   0303 78            [ 4]  624 	ld	a, b
   0304 87            [ 4]  625 	add	a, a
   0305 DD 77 FD      [19]  626 	ld	-3 (ix), a
   0308 C5            [11]  627 	push	bc
   0309 D5            [11]  628 	push	de
   030A E5            [11]  629 	push	hl
   030B FD E5         [15]  630 	push	iy
   030D 21 02 1A      [10]  631 	ld	hl, #0x1a02
   0310 E5            [11]  632 	push	hl
   0311 3E 02         [ 7]  633 	ld	a, #0x02
   0313 F5            [11]  634 	push	af
   0314 33            [ 6]  635 	inc	sp
   0315 DD 66 FE      [19]  636 	ld	h, -2 (ix)
   0318 DD 6E FD      [19]  637 	ld	l, -3 (ix)
   031B E5            [11]  638 	push	hl
   031C CDr00r00      [17]  639 	call	_cpct_etm_drawTileBox2x4
   031F D1            [10]  640 	pop	de
   0320 C1            [10]  641 	pop	bc
   0321                     642 00107$:
                            643 ;src/blocks.c:177: for (u8 x = 0; x < BLOCKS_MAP_W / 2; x++)
   0321 04            [ 4]  644 	inc	b
   0322 18 AA         [12]  645 	jr	00106$
   0324                     646 00110$:
                            647 ;src/blocks.c:175: for (u8 y = 0; y < BLOCKS_MAP_H / 2; y++)
   0324 0C            [ 4]  648 	inc	c
   0325 18 95         [12]  649 	jr	00109$
   0327                     650 00111$:
   0327 DD F9         [10]  651 	ld	sp, ix
   0329 DD E1         [14]  652 	pop	ix
   032B C9            [10]  653 	ret
                            654 ;src/blocks.c:193: void map_blocks_to_meta()
                            655 ;	---------------------------------
                            656 ; Function map_blocks_to_meta
                            657 ; ---------------------------------
   032C                     658 _map_blocks_to_meta::
   032C DD E5         [15]  659 	push	ix
   032E DD 21 00 00   [14]  660 	ld	ix,#0
   0332 DD 39         [15]  661 	add	ix,sp
   0334 F5            [11]  662 	push	af
   0335 F5            [11]  663 	push	af
   0336 3B            [ 6]  664 	dec	sp
                            665 ;src/blocks.c:195: blocks_remaining = 0;
   0337 21 00 00      [10]  666 	ld	hl, #0x0000
   033A 22r44r04      [16]  667 	ld	(_blocks_remaining), hl
                            668 ;src/blocks.c:197: for (u8 y = 0; y < BLOCKS_MAP_H; y += 2)
   033D DD 36 FC 00   [19]  669 	ld	-4 (ix), #0x00
   0341                     670 00119$:
   0341 DD 7E FC      [19]  671 	ld	a, -4 (ix)
   0344 D6 1C         [ 7]  672 	sub	a, #0x1c
   0346 D2rF8r04      [10]  673 	jp	NC, 00121$
                            674 ;src/blocks.c:199: for (u8 x = 0; x < BLOCKS_MAP_W; x += 2)
   0349 DD 4E FC      [19]  675 	ld	c,-4 (ix)
   034C 06 00         [ 7]  676 	ld	b,#0x00
   034E 69            [ 4]  677 	ld	l, c
   034F 60            [ 4]  678 	ld	h, b
   0350 29            [11]  679 	add	hl, hl
   0351 09            [11]  680 	add	hl, bc
   0352 29            [11]  681 	add	hl, hl
   0353 29            [11]  682 	add	hl, hl
   0354 09            [11]  683 	add	hl, bc
   0355 29            [11]  684 	add	hl, hl
   0356 DD 75 FE      [19]  685 	ld	-2 (ix), l
   0359 DD 74 FF      [19]  686 	ld	-1 (ix), h
   035C DD 4E FC      [19]  687 	ld	c, -4 (ix)
   035F CB 39         [ 8]  688 	srl	c
   0361 79            [ 4]  689 	ld	a, c
   0362 87            [ 4]  690 	add	a, a
   0363 81            [ 4]  691 	add	a, c
   0364 87            [ 4]  692 	add	a, a
   0365 DD 77 FD      [19]  693 	ld	-3 (ix), a
   0368 DD 36 FB 00   [19]  694 	ld	-5 (ix), #0x00
   036C                     695 00116$:
   036C DD 7E FB      [19]  696 	ld	a, -5 (ix)
   036F D6 1A         [ 7]  697 	sub	a, #0x1a
   0371 D2rEFr04      [10]  698 	jp	NC, 00120$
                            699 ;src/blocks.c:201: u8 tile = current_level->blocks_tilemap[(y * BLOCKS_MAP_W) + x];
   0374 2Ar00r00      [16]  700 	ld	hl, (_current_level)
   0377 23            [ 6]  701 	inc	hl
   0378 23            [ 6]  702 	inc	hl
   0379 4E            [ 7]  703 	ld	c, (hl)
   037A 23            [ 6]  704 	inc	hl
   037B 46            [ 7]  705 	ld	b, (hl)
   037C DD 5E FB      [19]  706 	ld	e, -5 (ix)
   037F 16 00         [ 7]  707 	ld	d, #0x00
   0381 DD 6E FE      [19]  708 	ld	l,-2 (ix)
   0384 DD 66 FF      [19]  709 	ld	h,-1 (ix)
   0387 19            [11]  710 	add	hl, de
   0388 09            [11]  711 	add	hl, bc
   0389 7E            [ 7]  712 	ld	a, (hl)
                            713 ;src/blocks.c:202: switch (tile)
   038A B7            [ 4]  714 	or	a, a
   038B 28 2C         [12]  715 	jr	Z,00101$
   038D FE 02         [ 7]  716 	cp	a, #0x02
   038F 28 3F         [12]  717 	jr	Z,00102$
   0391 FE 04         [ 7]  718 	cp	a, #0x04
   0393 28 53         [12]  719 	jr	Z,00103$
   0395 FE 06         [ 7]  720 	cp	a, #0x06
   0397 28 67         [12]  721 	jr	Z,00104$
   0399 FE 08         [ 7]  722 	cp	a, #0x08
   039B 28 7B         [12]  723 	jr	Z,00105$
   039D FE 0A         [ 7]  724 	cp	a, #0x0a
   039F CAr30r04      [10]  725 	jp	Z,00106$
   03A2 FE 0C         [ 7]  726 	cp	a, #0x0c
   03A4 CAr48r04      [10]  727 	jp	Z,00107$
   03A7 FE 0E         [ 7]  728 	cp	a, #0x0e
   03A9 CAr60r04      [10]  729 	jp	Z,00108$
   03AC FE 10         [ 7]  730 	cp	a, #0x10
   03AE CAr77r04      [10]  731 	jp	Z,00109$
   03B1 D6 12         [ 7]  732 	sub	a, #0x12
   03B3 CAr9Ar04      [10]  733 	jp	Z,00110$
   03B6 C3rB1r04      [10]  734 	jp	00111$
                            735 ;src/blocks.c:204: case WHITE_BLOCK:
   03B9                     736 00101$:
                            737 ;src/blocks.c:205: plant_tile_meta(x, y, WHITE_BLOCK, WHITE_SCORE, SINGLE_HIT_TO_REMOVE);
   03B9 21 05 01      [10]  738 	ld	hl, #0x0105
   03BC E5            [11]  739 	push	hl
   03BD AF            [ 4]  740 	xor	a, a
   03BE F5            [11]  741 	push	af
   03BF 33            [ 6]  742 	inc	sp
   03C0 DD 66 FC      [19]  743 	ld	h, -4 (ix)
   03C3 DD 6E FB      [19]  744 	ld	l, -5 (ix)
   03C6 E5            [11]  745 	push	hl
   03C7 CDrFDr04      [17]  746 	call	_plant_tile_meta
   03CA F1            [10]  747 	pop	af
   03CB F1            [10]  748 	pop	af
   03CC 33            [ 6]  749 	inc	sp
                            750 ;src/blocks.c:206: break;
   03CD C3rE6r04      [10]  751 	jp	00117$
                            752 ;src/blocks.c:207: case ORANGE_BLOCK:
   03D0                     753 00102$:
                            754 ;src/blocks.c:208: plant_tile_meta(x, y, ORANGE_BLOCK, ORANGE_SCORE, SINGLE_HIT_TO_REMOVE);
   03D0 21 06 01      [10]  755 	ld	hl, #0x0106
   03D3 E5            [11]  756 	push	hl
   03D4 3E 02         [ 7]  757 	ld	a, #0x02
   03D6 F5            [11]  758 	push	af
   03D7 33            [ 6]  759 	inc	sp
   03D8 DD 66 FC      [19]  760 	ld	h, -4 (ix)
   03DB DD 6E FB      [19]  761 	ld	l, -5 (ix)
   03DE E5            [11]  762 	push	hl
   03DF CDrFDr04      [17]  763 	call	_plant_tile_meta
   03E2 F1            [10]  764 	pop	af
   03E3 F1            [10]  765 	pop	af
   03E4 33            [ 6]  766 	inc	sp
                            767 ;src/blocks.c:209: break;
   03E5 C3rE6r04      [10]  768 	jp	00117$
                            769 ;src/blocks.c:210: case CYAN_BLOCK:
   03E8                     770 00103$:
                            771 ;src/blocks.c:211: plant_tile_meta(x, y, CYAN_BLOCK, CYAN_SCORE, SINGLE_HIT_TO_REMOVE);
   03E8 21 07 01      [10]  772 	ld	hl, #0x0107
   03EB E5            [11]  773 	push	hl
   03EC 3E 04         [ 7]  774 	ld	a, #0x04
   03EE F5            [11]  775 	push	af
   03EF 33            [ 6]  776 	inc	sp
   03F0 DD 66 FC      [19]  777 	ld	h, -4 (ix)
   03F3 DD 6E FB      [19]  778 	ld	l, -5 (ix)
   03F6 E5            [11]  779 	push	hl
   03F7 CDrFDr04      [17]  780 	call	_plant_tile_meta
   03FA F1            [10]  781 	pop	af
   03FB F1            [10]  782 	pop	af
   03FC 33            [ 6]  783 	inc	sp
                            784 ;src/blocks.c:212: break;
   03FD C3rE6r04      [10]  785 	jp	00117$
                            786 ;src/blocks.c:213: case GREEN_BLOCK:
   0400                     787 00104$:
                            788 ;src/blocks.c:214: plant_tile_meta(x, y, GREEN_BLOCK, GREEN_SCORE, SINGLE_HIT_TO_REMOVE);
   0400 21 08 01      [10]  789 	ld	hl, #0x0108
   0403 E5            [11]  790 	push	hl
   0404 3E 06         [ 7]  791 	ld	a, #0x06
   0406 F5            [11]  792 	push	af
   0407 33            [ 6]  793 	inc	sp
   0408 DD 66 FC      [19]  794 	ld	h, -4 (ix)
   040B DD 6E FB      [19]  795 	ld	l, -5 (ix)
   040E E5            [11]  796 	push	hl
   040F CDrFDr04      [17]  797 	call	_plant_tile_meta
   0412 F1            [10]  798 	pop	af
   0413 F1            [10]  799 	pop	af
   0414 33            [ 6]  800 	inc	sp
                            801 ;src/blocks.c:215: break;
   0415 C3rE6r04      [10]  802 	jp	00117$
                            803 ;src/blocks.c:216: case RED_BLOCK:
   0418                     804 00105$:
                            805 ;src/blocks.c:217: plant_tile_meta(x, y, RED_BLOCK, RED_SCORE, SINGLE_HIT_TO_REMOVE);
   0418 21 09 01      [10]  806 	ld	hl, #0x0109
   041B E5            [11]  807 	push	hl
   041C 3E 08         [ 7]  808 	ld	a, #0x08
   041E F5            [11]  809 	push	af
   041F 33            [ 6]  810 	inc	sp
   0420 DD 66 FC      [19]  811 	ld	h, -4 (ix)
   0423 DD 6E FB      [19]  812 	ld	l, -5 (ix)
   0426 E5            [11]  813 	push	hl
   0427 CDrFDr04      [17]  814 	call	_plant_tile_meta
   042A F1            [10]  815 	pop	af
   042B F1            [10]  816 	pop	af
   042C 33            [ 6]  817 	inc	sp
                            818 ;src/blocks.c:218: break;
   042D C3rE6r04      [10]  819 	jp	00117$
                            820 ;src/blocks.c:219: case BLUE_BLOCK:
   0430                     821 00106$:
                            822 ;src/blocks.c:220: plant_tile_meta(x, y, BLUE_BLOCK, BLUE_SCORE, SINGLE_HIT_TO_REMOVE);
   0430 21 0A 01      [10]  823 	ld	hl, #0x010a
   0433 E5            [11]  824 	push	hl
   0434 3E 0A         [ 7]  825 	ld	a, #0x0a
   0436 F5            [11]  826 	push	af
   0437 33            [ 6]  827 	inc	sp
   0438 DD 66 FC      [19]  828 	ld	h, -4 (ix)
   043B DD 6E FB      [19]  829 	ld	l, -5 (ix)
   043E E5            [11]  830 	push	hl
   043F CDrFDr04      [17]  831 	call	_plant_tile_meta
   0442 F1            [10]  832 	pop	af
   0443 F1            [10]  833 	pop	af
   0444 33            [ 6]  834 	inc	sp
                            835 ;src/blocks.c:221: break;
   0445 C3rE6r04      [10]  836 	jp	00117$
                            837 ;src/blocks.c:222: case MAGENTA_BLOCK:
   0448                     838 00107$:
                            839 ;src/blocks.c:223: plant_tile_meta(x, y, MAGENTA_BLOCK, MAGENTA_SCORE, SINGLE_HIT_TO_REMOVE);
   0448 21 0B 01      [10]  840 	ld	hl, #0x010b
   044B E5            [11]  841 	push	hl
   044C 3E 0C         [ 7]  842 	ld	a, #0x0c
   044E F5            [11]  843 	push	af
   044F 33            [ 6]  844 	inc	sp
   0450 DD 66 FC      [19]  845 	ld	h, -4 (ix)
   0453 DD 6E FB      [19]  846 	ld	l, -5 (ix)
   0456 E5            [11]  847 	push	hl
   0457 CDrFDr04      [17]  848 	call	_plant_tile_meta
   045A F1            [10]  849 	pop	af
   045B F1            [10]  850 	pop	af
   045C 33            [ 6]  851 	inc	sp
                            852 ;src/blocks.c:224: break;
   045D C3rE6r04      [10]  853 	jp	00117$
                            854 ;src/blocks.c:225: case YELLOW_BLOCK:
   0460                     855 00108$:
                            856 ;src/blocks.c:226: plant_tile_meta(x, y, YELLOW_BLOCK, YELLOW_SCORE, SINGLE_HIT_TO_REMOVE);
   0460 21 0C 01      [10]  857 	ld	hl, #0x010c
   0463 E5            [11]  858 	push	hl
   0464 3E 0E         [ 7]  859 	ld	a, #0x0e
   0466 F5            [11]  860 	push	af
   0467 33            [ 6]  861 	inc	sp
   0468 DD 66 FC      [19]  862 	ld	h, -4 (ix)
   046B DD 6E FB      [19]  863 	ld	l, -5 (ix)
   046E E5            [11]  864 	push	hl
   046F CDrFDr04      [17]  865 	call	_plant_tile_meta
   0472 F1            [10]  866 	pop	af
   0473 F1            [10]  867 	pop	af
   0474 33            [ 6]  868 	inc	sp
                            869 ;src/blocks.c:227: break;
   0475 18 6F         [12]  870 	jr	00117$
                            871 ;src/blocks.c:228: case STEEL_BLOCK:
   0477                     872 00109$:
                            873 ;src/blocks.c:231: current_level->steel_hits_to_destroy);
   0477 2Ar00r00      [16]  874 	ld	hl, (_current_level)
   047A 11 05 00      [10]  875 	ld	de, #0x0005
   047D 19            [11]  876 	add	hl, de
   047E 56            [ 7]  877 	ld	d, (hl)
                            878 ;src/blocks.c:230: current_level->steel_score, 
   047F FD 2Ar00r00   [20]  879 	ld	iy, (_current_level)
                            880 ;src/blocks.c:229: plant_tile_meta(x, y, STEEL_BLOCK, 
   0483 FD 5E 04      [19]  881 	ld	e, 4 (iy)
   0486 D5            [11]  882 	push	de
   0487 3E 10         [ 7]  883 	ld	a, #0x10
   0489 F5            [11]  884 	push	af
   048A 33            [ 6]  885 	inc	sp
   048B DD 66 FC      [19]  886 	ld	h, -4 (ix)
   048E DD 6E FB      [19]  887 	ld	l, -5 (ix)
   0491 E5            [11]  888 	push	hl
   0492 CDrFDr04      [17]  889 	call	_plant_tile_meta
   0495 F1            [10]  890 	pop	af
   0496 F1            [10]  891 	pop	af
   0497 33            [ 6]  892 	inc	sp
                            893 ;src/blocks.c:232: break;
   0498 18 4C         [12]  894 	jr	00117$
                            895 ;src/blocks.c:233: case GOLD_BLOCK:
   049A                     896 00110$:
                            897 ;src/blocks.c:234: plant_tile_meta(x, y, GOLD_BLOCK, 0, INDESTRUCTABLE);
   049A 21 00 FF      [10]  898 	ld	hl, #0xff00
   049D E5            [11]  899 	push	hl
   049E 3E 12         [ 7]  900 	ld	a, #0x12
   04A0 F5            [11]  901 	push	af
   04A1 33            [ 6]  902 	inc	sp
   04A2 DD 66 FC      [19]  903 	ld	h, -4 (ix)
   04A5 DD 6E FB      [19]  904 	ld	l, -5 (ix)
   04A8 E5            [11]  905 	push	hl
   04A9 CDrFDr04      [17]  906 	call	_plant_tile_meta
   04AC F1            [10]  907 	pop	af
   04AD F1            [10]  908 	pop	af
   04AE 33            [ 6]  909 	inc	sp
                            910 ;src/blocks.c:235: break;
   04AF 18 35         [12]  911 	jr	00117$
                            912 ;src/blocks.c:236: default:
   04B1                     913 00111$:
                            914 ;src/blocks.c:238: block_meta[x / 2][y / 2].is_active = 0;
   04B1 DD 4E FB      [19]  915 	ld	c, -5 (ix)
   04B4 CB 39         [ 8]  916 	srl	c
   04B6 06 00         [ 7]  917 	ld	b,#0x00
   04B8 69            [ 4]  918 	ld	l, c
   04B9 60            [ 4]  919 	ld	h, b
   04BA 29            [11]  920 	add	hl, hl
   04BB 29            [11]  921 	add	hl, hl
   04BC 09            [11]  922 	add	hl, bc
   04BD 29            [11]  923 	add	hl, hl
   04BE 29            [11]  924 	add	hl, hl
   04BF 09            [11]  925 	add	hl, bc
   04C0 29            [11]  926 	add	hl, hl
   04C1 29            [11]  927 	add	hl, hl
   04C2 01r00r00      [10]  928 	ld	bc,#_block_meta
   04C5 09            [11]  929 	add	hl,bc
   04C6 4D            [ 4]  930 	ld	c, l
   04C7 44            [ 4]  931 	ld	b, h
   04C8 DD 6E FD      [19]  932 	ld	l,-3 (ix)
   04CB 26 00         [ 7]  933 	ld	h,#0x00
   04CD 09            [11]  934 	add	hl, bc
   04CE 36 00         [10]  935 	ld	(hl), #0x00
                            936 ;src/blocks.c:239: block_meta[x / 2][y / 2].score = 0;
   04D0 DD 7E FD      [19]  937 	ld	a, -3 (ix)
   04D3 81            [ 4]  938 	add	a, c
   04D4 4F            [ 4]  939 	ld	c, a
   04D5 3E 00         [ 7]  940 	ld	a, #0x00
   04D7 88            [ 4]  941 	adc	a, b
   04D8 47            [ 4]  942 	ld	b, a
   04D9 59            [ 4]  943 	ld	e, c
   04DA 50            [ 4]  944 	ld	d, b
   04DB 13            [ 6]  945 	inc	de
   04DC 13            [ 6]  946 	inc	de
   04DD AF            [ 4]  947 	xor	a, a
   04DE 12            [ 7]  948 	ld	(de), a
                            949 ;src/blocks.c:240: block_meta[x / 2][y / 2].remaining_hits = 0;
   04DF 03            [ 6]  950 	inc	bc
   04E0 03            [ 6]  951 	inc	bc
   04E1 03            [ 6]  952 	inc	bc
   04E2 60            [ 4]  953 	ld	h, b
   04E3 69            [ 4]  954 	ld	l, c
   04E4 36 00         [10]  955 	ld	(hl), #0x00
                            956 ;src/blocks.c:243: }
   04E6                     957 00117$:
                            958 ;src/blocks.c:199: for (u8 x = 0; x < BLOCKS_MAP_W; x += 2)
   04E6 DD 34 FB      [23]  959 	inc	-5 (ix)
   04E9 DD 34 FB      [23]  960 	inc	-5 (ix)
   04EC C3r6Cr03      [10]  961 	jp	00116$
   04EF                     962 00120$:
                            963 ;src/blocks.c:197: for (u8 y = 0; y < BLOCKS_MAP_H; y += 2)
   04EF DD 34 FC      [23]  964 	inc	-4 (ix)
   04F2 DD 34 FC      [23]  965 	inc	-4 (ix)
   04F5 C3r41r03      [10]  966 	jp	00119$
   04F8                     967 00121$:
   04F8 DD F9         [10]  968 	ld	sp, ix
   04FA DD E1         [14]  969 	pop	ix
   04FC C9            [10]  970 	ret
                            971 ;src/blocks.c:248: void plant_tile_meta(u8 map_x, u8 map_y, u8 tile_type, u8 score, u8 hits_to_destroy)
                            972 ;	---------------------------------
                            973 ; Function plant_tile_meta
                            974 ; ---------------------------------
   04FD                     975 _plant_tile_meta::
   04FD DD E5         [15]  976 	push	ix
   04FF DD 21 00 00   [14]  977 	ld	ix,#0
   0503 DD 39         [15]  978 	add	ix,sp
                            979 ;src/blocks.c:250: if (hits_to_destroy != INDESTRUCTABLE) {
   0505 DD 7E 08      [19]  980 	ld	a, 8 (ix)
   0508 3C            [ 4]  981 	inc	a
   0509 28 0C         [12]  982 	jr	Z,00102$
                            983 ;src/blocks.c:251: blocks_remaining += 1;
   050B FD 21r44r04   [14]  984 	ld	iy, #_blocks_remaining
   050F FD 34 00      [23]  985 	inc	0 (iy)
   0512 20 03         [12]  986 	jr	NZ,00110$
   0514 FD 34 01      [23]  987 	inc	1 (iy)
   0517                     988 00110$:
   0517                     989 00102$:
                            990 ;src/blocks.c:254: block_meta[map_x / 2][map_y / 2].is_active = 1;
   0517 01r00r00      [10]  991 	ld	bc, #_block_meta+0
   051A DD 5E 04      [19]  992 	ld	e, 4 (ix)
   051D CB 3B         [ 8]  993 	srl	e
   051F 16 00         [ 7]  994 	ld	d,#0x00
   0521 6B            [ 4]  995 	ld	l, e
   0522 62            [ 4]  996 	ld	h, d
   0523 29            [11]  997 	add	hl, hl
   0524 29            [11]  998 	add	hl, hl
   0525 19            [11]  999 	add	hl, de
   0526 29            [11] 1000 	add	hl, hl
   0527 29            [11] 1001 	add	hl, hl
   0528 19            [11] 1002 	add	hl, de
   0529 29            [11] 1003 	add	hl, hl
   052A 29            [11] 1004 	add	hl, hl
   052B 09            [11] 1005 	add	hl,bc
   052C 4D            [ 4] 1006 	ld	c, l
   052D 44            [ 4] 1007 	ld	b, h
   052E DD 5E 05      [19] 1008 	ld	e, 5 (ix)
   0531 CB 3B         [ 8] 1009 	srl	e
   0533 6B            [ 4] 1010 	ld	l, e
   0534 29            [11] 1011 	add	hl, hl
   0535 19            [11] 1012 	add	hl, de
   0536 29            [11] 1013 	add	hl, hl
   0537 7D            [ 4] 1014 	ld	a, l
   0538 81            [ 4] 1015 	add	a, c
   0539 4F            [ 4] 1016 	ld	c, a
   053A 3E 00         [ 7] 1017 	ld	a, #0x00
   053C 88            [ 4] 1018 	adc	a, b
   053D 47            [ 4] 1019 	ld	b, a
   053E 3E 01         [ 7] 1020 	ld	a, #0x01
   0540 02            [ 7] 1021 	ld	(bc), a
                           1022 ;src/blocks.c:255: block_meta[map_x / 2][map_y / 2].score = score;
   0541 59            [ 4] 1023 	ld	e, c
   0542 50            [ 4] 1024 	ld	d, b
   0543 13            [ 6] 1025 	inc	de
   0544 13            [ 6] 1026 	inc	de
   0545 DD 7E 07      [19] 1027 	ld	a, 7 (ix)
   0548 12            [ 7] 1028 	ld	(de), a
                           1029 ;src/blocks.c:256: block_meta[map_x / 2][map_y / 2].remaining_hits = hits_to_destroy;
   0549 59            [ 4] 1030 	ld	e, c
   054A 50            [ 4] 1031 	ld	d, b
   054B 13            [ 6] 1032 	inc	de
   054C 13            [ 6] 1033 	inc	de
   054D 13            [ 6] 1034 	inc	de
   054E DD 7E 08      [19] 1035 	ld	a, 8 (ix)
   0551 12            [ 7] 1036 	ld	(de), a
                           1037 ;src/blocks.c:257: block_meta[map_x / 2][map_y / 2].type = tile_type;
   0552 59            [ 4] 1038 	ld	e, c
   0553 50            [ 4] 1039 	ld	d, b
   0554 13            [ 6] 1040 	inc	de
   0555 DD 7E 06      [19] 1041 	ld	a, 6 (ix)
   0558 12            [ 7] 1042 	ld	(de), a
                           1043 ;src/blocks.c:258: block_meta[map_x / 2][map_y / 2].block_tile_x = map_x;
   0559 21 04 00      [10] 1044 	ld	hl, #0x0004
   055C 09            [11] 1045 	add	hl, bc
   055D DD 7E 04      [19] 1046 	ld	a, 4 (ix)
   0560 77            [ 7] 1047 	ld	(hl), a
                           1048 ;src/blocks.c:259: block_meta[map_x / 2][map_y / 2].block_tile_y = map_y;
   0561 21 05 00      [10] 1049 	ld	hl, #0x0005
   0564 09            [11] 1050 	add	hl, bc
   0565 DD 7E 05      [19] 1051 	ld	a, 5 (ix)
   0568 77            [ 7] 1052 	ld	(hl), a
   0569 DD E1         [14] 1053 	pop	ix
   056B C9            [10] 1054 	ret
                           1055 	.area _CODE
                           1056 	.area _INITIALIZER
                           1057 	.area _CABS (ABS)
