                              1 ;--------------------------------------------------------
                              2 ; File Created by SDCC : free open source ANSI-C Compiler
                              3 ; Version 3.6.8 #9946 (Linux)
                              4 ;--------------------------------------------------------
                              5 	.module blocks
                              6 	.optsdcc -mz80
                              7 	
                              8 ;--------------------------------------------------------
                              9 ; Public variables in this module
                             10 ;--------------------------------------------------------
                             11 	.globl _dbg_displayNumber
                             12 	.globl _cpct_etm_drawTilemap2x4_f
                             13 	.globl _cpct_getScreenPtr
                             14 	.globl _cpct_drawSolidBox
                             15 	.globl _block_meta
                             16 	.globl _max_y
                             17 	.globl _max_x
                             18 	.globl _min_y
                             19 	.globl _min_x
                             20 	.globl _p_block_v_mem
                             21 	.globl _blocks_initialize
                             22 	.globl _blocks_draw
                             23 	.globl _blocks_restore_background
                             24 	.globl _blocks_intersect_ball
                             25 	.globl _map_tiles_to_meta
                             26 	.globl _plant_tile_meta
                             27 ;--------------------------------------------------------
                             28 ; special function registers
                             29 ;--------------------------------------------------------
                             30 ;--------------------------------------------------------
                             31 ; ram data
                             32 ;--------------------------------------------------------
                             33 	.area _DATA
   0000                      34 _p_block_v_mem::
   0000                      35 	.ds 2
   0002                      36 _min_x::
   0002                      37 	.ds 1
   0003                      38 _min_y::
   0003                      39 	.ds 1
   0004                      40 _max_x::
   0004                      41 	.ds 1
   0005                      42 _max_y::
   0005                      43 	.ds 1
   0006                      44 _block_meta::
   0006                      45 	.ds 728
                             46 ;--------------------------------------------------------
                             47 ; ram data
                             48 ;--------------------------------------------------------
                             49 	.area _INITIALIZED
                             50 ;--------------------------------------------------------
                             51 ; absolute external ram data
                             52 ;--------------------------------------------------------
                             53 	.area _DABS (ABS)
                             54 ;--------------------------------------------------------
                             55 ; global & static initialisations
                             56 ;--------------------------------------------------------
                             57 	.area _HOME
                             58 	.area _GSINIT
                             59 	.area _GSFINAL
                             60 	.area _GSINIT
                             61 ;--------------------------------------------------------
                             62 ; Home
                             63 ;--------------------------------------------------------
                             64 	.area _HOME
                             65 	.area _HOME
                             66 ;--------------------------------------------------------
                             67 ; code
                             68 ;--------------------------------------------------------
                             69 	.area _CODE
                             70 ;src/blocks.c:31: void blocks_initialize()
                             71 ;	---------------------------------
                             72 ; Function blocks_initialize
                             73 ; ---------------------------------
   0000                      74 _blocks_initialize::
                             75 ;src/blocks.c:33: p_block_v_mem = cpct_getScreenPtr(CPCT_VMEM_START, TILE_MAP_SCREEN_BYTE_OFFSET_X + 2 * TILE_W, TILE_MAP_SCREEN_PIXEL_OFFSET_Y + BRICKS_MAP_BACKGROUND_PIXEL_OFFSET_Y);
   0000 21 0C 18      [10]   76 	ld	hl, #0x180c
   0003 E5            [11]   77 	push	hl
   0004 21 00 C0      [10]   78 	ld	hl, #0xc000
   0007 E5            [11]   79 	push	hl
   0008 CDr00r00      [17]   80 	call	_cpct_getScreenPtr
   000B 22r00r00      [16]   81 	ld	(_p_block_v_mem), hl
                             82 ;src/blocks.c:34: cpct_etm_drawTilemap2x4_f(g_tilemap_l01_blocks_W, g_tilemap_l01_blocks_H, p_block_v_mem, current_level->blocks_tilemap);
   000E 2Ar00r00      [16]   83 	ld	hl, (_current_level)
   0011 23            [ 6]   84 	inc	hl
   0012 23            [ 6]   85 	inc	hl
   0013 4E            [ 7]   86 	ld	c, (hl)
   0014 23            [ 6]   87 	inc	hl
   0015 46            [ 7]   88 	ld	b, (hl)
   0016 2Ar00r00      [16]   89 	ld	hl, (_p_block_v_mem)
   0019 C5            [11]   90 	push	bc
   001A E5            [11]   91 	push	hl
   001B 21 1A 1C      [10]   92 	ld	hl, #0x1c1a
   001E E5            [11]   93 	push	hl
   001F CDr00r00      [17]   94 	call	_cpct_etm_drawTilemap2x4_f
                             95 ;src/blocks.c:37: map_tiles_to_meta();
   0022 CDr23r02      [17]   96 	call	_map_tiles_to_meta
                             97 ;src/blocks.c:39: min_x = 0xFF;
   0025 21r02r00      [10]   98 	ld	hl,#_min_x + 0
   0028 36 FF         [10]   99 	ld	(hl), #0xff
                            100 ;src/blocks.c:40: min_y = 0xFF;
   002A 21r03r00      [10]  101 	ld	hl,#_min_y + 0
   002D 36 FF         [10]  102 	ld	(hl), #0xff
                            103 ;src/blocks.c:41: max_x = 0x00;
   002F 21r04r00      [10]  104 	ld	hl,#_max_x + 0
   0032 36 00         [10]  105 	ld	(hl), #0x00
                            106 ;src/blocks.c:42: max_y = 0x00;
   0034 21r05r00      [10]  107 	ld	hl,#_max_y + 0
   0037 36 00         [10]  108 	ld	(hl), #0x00
   0039 C9            [10]  109 	ret
                            110 ;src/blocks.c:45: void blocks_draw()
                            111 ;	---------------------------------
                            112 ; Function blocks_draw
                            113 ; ---------------------------------
   003A                     114 _blocks_draw::
                            115 ;src/blocks.c:49: }
   003A C9            [10]  116 	ret
                            117 ;src/blocks.c:51: void blocks_restore_background()
                            118 ;	---------------------------------
                            119 ; Function blocks_restore_background
                            120 ; ---------------------------------
   003B                     121 _blocks_restore_background::
                            122 ;src/blocks.c:53: }
   003B C9            [10]  123 	ret
                            124 ;src/blocks.c:55: void blocks_intersect_ball(Ball *ball)
                            125 ;	---------------------------------
                            126 ; Function blocks_intersect_ball
                            127 ; ---------------------------------
   003C                     128 _blocks_intersect_ball::
   003C DD E5         [15]  129 	push	ix
   003E DD 21 00 00   [14]  130 	ld	ix,#0
   0042 DD 39         [15]  131 	add	ix,sp
   0044 21 F4 FF      [10]  132 	ld	hl, #-12
   0047 39            [11]  133 	add	hl, sp
   0048 F9            [ 6]  134 	ld	sp, hl
                            135 ;src/blocks.c:59: if ((ball->y + SP_BALL_H < TILE_MAP_SCREEN_PIXEL_OFFSET_Y + BRICKS_MAP_BACKGROUND_PIXEL_OFFSET_Y) ||
   0049 DD 7E 04      [19]  136 	ld	a, 4 (ix)
   004C DD 77 FE      [19]  137 	ld	-2 (ix), a
   004F DD 7E 05      [19]  138 	ld	a, 5 (ix)
   0052 DD 77 FF      [19]  139 	ld	-1 (ix), a
   0055 DD 6E FE      [19]  140 	ld	l,-2 (ix)
   0058 DD 66 FF      [19]  141 	ld	h,-1 (ix)
   005B 23            [ 6]  142 	inc	hl
   005C 23            [ 6]  143 	inc	hl
   005D 7E            [ 7]  144 	ld	a, (hl)
   005E DD 77 F9      [19]  145 	ld	-7 (ix), a
   0061 4F            [ 4]  146 	ld	c, a
   0062 06 00         [ 7]  147 	ld	b, #0x00
   0064 21 06 00      [10]  148 	ld	hl, #0x0006
   0067 09            [11]  149 	add	hl, bc
   0068 11 18 80      [10]  150 	ld	de, #0x8018
   006B 29            [11]  151 	add	hl, hl
   006C 3F            [ 4]  152 	ccf
   006D CB 1C         [ 8]  153 	rr	h
   006F CB 1D         [ 8]  154 	rr	l
   0071 ED 52         [15]  155 	sbc	hl, de
   0073 DAr1Er02      [10]  156 	jp	C,00114$
                            157 ;src/blocks.c:60: (ball->y > TILE_MAP_SCREEN_PIXEL_OFFSET_Y + BRICKS_MAP_BACKGROUND_PIXEL_OFFSET_Y + (BLOCKS_MAP_H * TILE_H)))
   0076 3E 88         [ 7]  158 	ld	a, #0x88
   0078 DD 96 F9      [19]  159 	sub	a, -7 (ix)
                            160 ;src/blocks.c:62: return;
   007B DAr1Er02      [10]  161 	jp	C,00114$
                            162 ;src/blocks.c:66: u8 ball_center_x = ball->x + (SP_BALL_W / 2);
   007E DD 6E FE      [19]  163 	ld	l,-2 (ix)
   0081 DD 66 FF      [19]  164 	ld	h,-1 (ix)
   0084 23            [ 6]  165 	inc	hl
   0085 4E            [ 7]  166 	ld	c, (hl)
   0086 0C            [ 4]  167 	inc	c
                            168 ;src/blocks.c:67: u8 ball_center_y = ball->y + (SP_BALL_W / 2);
   0087 DD 7E F9      [19]  169 	ld	a, -7 (ix)
   008A 3C            [ 4]  170 	inc	a
   008B DD 77 F8      [19]  171 	ld	-8 (ix), a
                            172 ;src/blocks.c:69: u8 tx = (ball_center_x - (TILE_MAP_SCREEN_BYTE_OFFSET_X + 2)) / 4;
   008E 06 00         [ 7]  173 	ld	b, #0x00
   0090 79            [ 4]  174 	ld	a, c
   0091 C6 F6         [ 7]  175 	add	a, #0xf6
   0093 5F            [ 4]  176 	ld	e, a
   0094 78            [ 4]  177 	ld	a, b
   0095 CE FF         [ 7]  178 	adc	a, #0xff
   0097 57            [ 4]  179 	ld	d, a
   0098 6B            [ 4]  180 	ld	l, e
   0099 62            [ 4]  181 	ld	h, d
   009A CB 7A         [ 8]  182 	bit	7, d
   009C 28 04         [12]  183 	jr	Z,00116$
   009E 21 F9 FF      [10]  184 	ld	hl, #0xfff9
   00A1 09            [11]  185 	add	hl, bc
   00A2                     186 00116$:
   00A2 CB 2C         [ 8]  187 	sra	h
   00A4 CB 1D         [ 8]  188 	rr	l
   00A6 CB 2C         [ 8]  189 	sra	h
   00A8 CB 1D         [ 8]  190 	rr	l
   00AA DD 75 F7      [19]  191 	ld	-9 (ix), l
                            192 ;src/blocks.c:70: u8 ty = (ball_center_y - (TILE_MAP_SCREEN_PIXEL_OFFSET_Y + BRICKS_MAP_BACKGROUND_PIXEL_OFFSET_Y)) / 8;
   00AD DD 4E F8      [19]  193 	ld	c, -8 (ix)
   00B0 06 00         [ 7]  194 	ld	b, #0x00
   00B2 79            [ 4]  195 	ld	a, c
   00B3 C6 E8         [ 7]  196 	add	a, #0xe8
   00B5 5F            [ 4]  197 	ld	e, a
   00B6 78            [ 4]  198 	ld	a, b
   00B7 CE FF         [ 7]  199 	adc	a, #0xff
   00B9 57            [ 4]  200 	ld	d, a
   00BA 6B            [ 4]  201 	ld	l, e
   00BB 62            [ 4]  202 	ld	h, d
   00BC CB 7A         [ 8]  203 	bit	7, d
   00BE 28 04         [12]  204 	jr	Z,00117$
   00C0 21 EF FF      [10]  205 	ld	hl, #0xffef
   00C3 09            [11]  206 	add	hl, bc
   00C4                     207 00117$:
   00C4 CB 2C         [ 8]  208 	sra	h
   00C6 CB 1D         [ 8]  209 	rr	l
   00C8 CB 2C         [ 8]  210 	sra	h
   00CA CB 1D         [ 8]  211 	rr	l
   00CC CB 2C         [ 8]  212 	sra	h
   00CE CB 1D         [ 8]  213 	rr	l
                            214 ;src/blocks.c:75: u8* pvmem = cpct_getScreenPtr(CPCT_VMEM_START, tx*2  + (TILE_MAP_SCREEN_BYTE_OFFSET_X + 2 * TILE_W), (ty*4) + (TILE_MAP_SCREEN_PIXEL_OFFSET_Y + BRICKS_MAP_BACKGROUND_PIXEL_OFFSET_Y));
   00D0 DD 75 F6      [19]  215 	ld	-10 (ix), l
   00D3 7D            [ 4]  216 	ld	a, l
   00D4 87            [ 4]  217 	add	a, a
   00D5 87            [ 4]  218 	add	a, a
   00D6 DD 77 F9      [19]  219 	ld	-7 (ix), a
   00D9 C6 18         [ 7]  220 	add	a, #0x18
   00DB DD 77 FA      [19]  221 	ld	-6 (ix), a
   00DE DD 7E F7      [19]  222 	ld	a, -9 (ix)
   00E1 87            [ 4]  223 	add	a, a
   00E2 DD 77 FD      [19]  224 	ld	-3 (ix), a
   00E5 C6 0C         [ 7]  225 	add	a, #0x0c
   00E7 47            [ 4]  226 	ld	b, a
   00E8 DD 7E FA      [19]  227 	ld	a, -6 (ix)
   00EB F5            [11]  228 	push	af
   00EC 33            [ 6]  229 	inc	sp
   00ED C5            [11]  230 	push	bc
   00EE 33            [ 6]  231 	inc	sp
   00EF 21 00 C0      [10]  232 	ld	hl, #0xc000
   00F2 E5            [11]  233 	push	hl
   00F3 CDr00r00      [17]  234 	call	_cpct_getScreenPtr
   00F6 DD 74 F5      [19]  235 	ld	-11 (ix), h
                            236 ;src/blocks.c:76: cpct_drawSolidBox(pvmem, 255, 2,4);
   00F9 DD 75 F4      [19]  237 	ld	-12 (ix), l
   00FC DD 75 FB      [19]  238 	ld	-5 (ix), l
   00FF DD 7E F5      [19]  239 	ld	a, -11 (ix)
   0102 DD 77 FC      [19]  240 	ld	-4 (ix), a
   0105 21 02 04      [10]  241 	ld	hl, #0x0402
   0108 E5            [11]  242 	push	hl
   0109 21 FF 00      [10]  243 	ld	hl, #0x00ff
   010C E5            [11]  244 	push	hl
   010D DD 6E FB      [19]  245 	ld	l,-5 (ix)
   0110 DD 66 FC      [19]  246 	ld	h,-4 (ix)
   0113 E5            [11]  247 	push	hl
   0114 CDr00r00      [17]  248 	call	_cpct_drawSolidBox
                            249 ;src/blocks.c:78: dbg_displayNumber(0, tx);
   0117 DD 4E F7      [19]  250 	ld	c, -9 (ix)
   011A 06 00         [ 7]  251 	ld	b, #0x00
   011C C5            [11]  252 	push	bc
   011D AF            [ 4]  253 	xor	a, a
   011E F5            [11]  254 	push	af
   011F 33            [ 6]  255 	inc	sp
   0120 CDr00r00      [17]  256 	call	_dbg_displayNumber
   0123 F1            [10]  257 	pop	af
   0124 33            [ 6]  258 	inc	sp
                            259 ;src/blocks.c:79: dbg_displayNumber(1, ty);
   0125 DD 4E F6      [19]  260 	ld	c, -10 (ix)
   0128 06 00         [ 7]  261 	ld	b, #0x00
   012A C5            [11]  262 	push	bc
   012B 3E 01         [ 7]  263 	ld	a, #0x01
   012D F5            [11]  264 	push	af
   012E 33            [ 6]  265 	inc	sp
   012F CDr00r00      [17]  266 	call	_dbg_displayNumber
   0132 F1            [10]  267 	pop	af
   0133 33            [ 6]  268 	inc	sp
                            269 ;src/blocks.c:81: if (tx < min_x)
   0134 21r02r00      [10]  270 	ld	hl, #_min_x
   0137 DD 7E F7      [19]  271 	ld	a, -9 (ix)
   013A 96            [ 7]  272 	sub	a, (hl)
   013B 30 06         [12]  273 	jr	NC,00105$
                            274 ;src/blocks.c:82: min_x = tx;
   013D DD 7E F7      [19]  275 	ld	a, -9 (ix)
   0140 32r02r00      [13]  276 	ld	(#_min_x + 0),a
   0143                     277 00105$:
                            278 ;src/blocks.c:83: if (tx > max_x)
   0143 3Ar04r00      [13]  279 	ld	a, (#_max_x)
   0146 DD 96 F7      [19]  280 	sub	a, -9 (ix)
   0149 30 06         [12]  281 	jr	NC,00107$
                            282 ;src/blocks.c:84: max_x = tx;
   014B DD 7E F7      [19]  283 	ld	a, -9 (ix)
   014E 32r04r00      [13]  284 	ld	(#_max_x + 0),a
   0151                     285 00107$:
                            286 ;src/blocks.c:85: if (ty < min_y)
   0151 21r03r00      [10]  287 	ld	hl, #_min_y
   0154 DD 7E F6      [19]  288 	ld	a, -10 (ix)
   0157 96            [ 7]  289 	sub	a, (hl)
   0158 30 06         [12]  290 	jr	NC,00109$
                            291 ;src/blocks.c:86: min_y = ty;
   015A DD 7E F6      [19]  292 	ld	a, -10 (ix)
   015D 32r03r00      [13]  293 	ld	(#_min_y + 0),a
   0160                     294 00109$:
                            295 ;src/blocks.c:87: if (ty > max_y)
   0160 3Ar05r00      [13]  296 	ld	a, (#_max_y)
   0163 DD 96 F6      [19]  297 	sub	a, -10 (ix)
   0166 30 06         [12]  298 	jr	NC,00111$
                            299 ;src/blocks.c:88: max_y = ty;
   0168 DD 7E F6      [19]  300 	ld	a, -10 (ix)
   016B 32r05r00      [13]  301 	ld	(#_max_y + 0),a
   016E                     302 00111$:
                            303 ;src/blocks.c:90: dbg_displayNumber(3, min_x);
   016E 21r02r00      [10]  304 	ld	hl,#_min_x + 0
   0171 4E            [ 7]  305 	ld	c, (hl)
   0172 06 00         [ 7]  306 	ld	b, #0x00
   0174 C5            [11]  307 	push	bc
   0175 3E 03         [ 7]  308 	ld	a, #0x03
   0177 F5            [11]  309 	push	af
   0178 33            [ 6]  310 	inc	sp
   0179 CDr00r00      [17]  311 	call	_dbg_displayNumber
   017C F1            [10]  312 	pop	af
   017D 33            [ 6]  313 	inc	sp
                            314 ;src/blocks.c:91: dbg_displayNumber(4, max_x);
   017E 21r04r00      [10]  315 	ld	hl,#_max_x + 0
   0181 4E            [ 7]  316 	ld	c, (hl)
   0182 06 00         [ 7]  317 	ld	b, #0x00
   0184 C5            [11]  318 	push	bc
   0185 3E 04         [ 7]  319 	ld	a, #0x04
   0187 F5            [11]  320 	push	af
   0188 33            [ 6]  321 	inc	sp
   0189 CDr00r00      [17]  322 	call	_dbg_displayNumber
   018C F1            [10]  323 	pop	af
   018D 33            [ 6]  324 	inc	sp
                            325 ;src/blocks.c:93: dbg_displayNumber(6, min_y);
   018E 21r03r00      [10]  326 	ld	hl,#_min_y + 0
   0191 4E            [ 7]  327 	ld	c, (hl)
   0192 06 00         [ 7]  328 	ld	b, #0x00
   0194 C5            [11]  329 	push	bc
   0195 3E 06         [ 7]  330 	ld	a, #0x06
   0197 F5            [11]  331 	push	af
   0198 33            [ 6]  332 	inc	sp
   0199 CDr00r00      [17]  333 	call	_dbg_displayNumber
   019C F1            [10]  334 	pop	af
   019D 33            [ 6]  335 	inc	sp
                            336 ;src/blocks.c:94: dbg_displayNumber(7, max_y);
   019E 21r05r00      [10]  337 	ld	hl,#_max_y + 0
   01A1 4E            [ 7]  338 	ld	c, (hl)
   01A2 06 00         [ 7]  339 	ld	b, #0x00
   01A4 C5            [11]  340 	push	bc
   01A5 3E 07         [ 7]  341 	ld	a, #0x07
   01A7 F5            [11]  342 	push	af
   01A8 33            [ 6]  343 	inc	sp
   01A9 CDr00r00      [17]  344 	call	_dbg_displayNumber
   01AC F1            [10]  345 	pop	af
   01AD 33            [ 6]  346 	inc	sp
                            347 ;src/blocks.c:96: if (block_meta[tx][ty].is_active)
   01AE DD 4E F7      [19]  348 	ld	c,-9 (ix)
   01B1 06 00         [ 7]  349 	ld	b,#0x00
   01B3 69            [ 4]  350 	ld	l, c
   01B4 60            [ 4]  351 	ld	h, b
   01B5 29            [11]  352 	add	hl, hl
   01B6 09            [11]  353 	add	hl, bc
   01B7 29            [11]  354 	add	hl, hl
   01B8 09            [11]  355 	add	hl, bc
   01B9 29            [11]  356 	add	hl, hl
   01BA 29            [11]  357 	add	hl, hl
   01BB 29            [11]  358 	add	hl, hl
   01BC DD 75 FB      [19]  359 	ld	-5 (ix), l
   01BF DD 74 FC      [19]  360 	ld	-4 (ix), h
   01C2 3Er06         [ 7]  361 	ld	a, #<(_block_meta)
   01C4 DD 86 FB      [19]  362 	add	a, -5 (ix)
   01C7 DD 77 FB      [19]  363 	ld	-5 (ix), a
   01CA 3Es00         [ 7]  364 	ld	a, #>(_block_meta)
   01CC DD 8E FC      [19]  365 	adc	a, -4 (ix)
   01CF DD 77 FC      [19]  366 	ld	-4 (ix), a
   01D2 DD 7E FB      [19]  367 	ld	a, -5 (ix)
   01D5 DD 86 F9      [19]  368 	add	a, -7 (ix)
   01D8 DD 77 FB      [19]  369 	ld	-5 (ix), a
   01DB DD 7E FC      [19]  370 	ld	a, -4 (ix)
   01DE CE 00         [ 7]  371 	adc	a, #0x00
   01E0 DD 77 FC      [19]  372 	ld	-4 (ix), a
   01E3 DD 6E FB      [19]  373 	ld	l,-5 (ix)
   01E6 DD 66 FC      [19]  374 	ld	h,-4 (ix)
   01E9 7E            [ 7]  375 	ld	a, (hl)
   01EA DD 77 FD      [19]  376 	ld	-3 (ix), a
   01ED B7            [ 4]  377 	or	a, a
   01EE 28 2E         [12]  378 	jr	Z,00114$
                            379 ;src/blocks.c:98: ball->dy = -ball->dy;
   01F0 DD 7E FE      [19]  380 	ld	a, -2 (ix)
   01F3 C6 06         [ 7]  381 	add	a, #0x06
   01F5 DD 77 FE      [19]  382 	ld	-2 (ix), a
   01F8 DD 7E FF      [19]  383 	ld	a, -1 (ix)
   01FB CE 00         [ 7]  384 	adc	a, #0x00
   01FD DD 77 FF      [19]  385 	ld	-1 (ix), a
   0200 DD 6E FE      [19]  386 	ld	l,-2 (ix)
   0203 DD 66 FF      [19]  387 	ld	h,-1 (ix)
   0206 4E            [ 7]  388 	ld	c, (hl)
   0207 AF            [ 4]  389 	xor	a, a
   0208 91            [ 4]  390 	sub	a, c
   0209 DD 77 FD      [19]  391 	ld	-3 (ix), a
   020C DD 6E FE      [19]  392 	ld	l,-2 (ix)
   020F DD 66 FF      [19]  393 	ld	h,-1 (ix)
   0212 DD 7E FD      [19]  394 	ld	a, -3 (ix)
   0215 77            [ 7]  395 	ld	(hl), a
                            396 ;src/blocks.c:99: block_meta[tx][ty].is_active = 0;
   0216 DD 6E FB      [19]  397 	ld	l,-5 (ix)
   0219 DD 66 FC      [19]  398 	ld	h,-4 (ix)
   021C 36 00         [10]  399 	ld	(hl), #0x00
   021E                     400 00114$:
   021E DD F9         [10]  401 	ld	sp, ix
   0220 DD E1         [14]  402 	pop	ix
   0222 C9            [10]  403 	ret
                            404 ;src/blocks.c:111: void map_tiles_to_meta()
                            405 ;	---------------------------------
                            406 ; Function map_tiles_to_meta
                            407 ; ---------------------------------
   0223                     408 _map_tiles_to_meta::
   0223 DD E5         [15]  409 	push	ix
   0225 DD 21 00 00   [14]  410 	ld	ix,#0
   0229 DD 39         [15]  411 	add	ix,sp
   022B F5            [11]  412 	push	af
   022C F5            [11]  413 	push	af
   022D 3B            [ 6]  414 	dec	sp
                            415 ;src/blocks.c:115: for (u8 y = 0; y < BLOCKS_MAP_H; y += 2)
   022E DD 36 FC 00   [19]  416 	ld	-4 (ix), #0x00
   0232                     417 00119$:
   0232 DD 7E FC      [19]  418 	ld	a, -4 (ix)
   0235 D6 1C         [ 7]  419 	sub	a, #0x1c
   0237 D2rE6r03      [10]  420 	jp	NC, 00121$
                            421 ;src/blocks.c:117: for (u8 x = 0; x < BLOCKS_MAP_W; x += 2)
   023A DD 4E FC      [19]  422 	ld	c,-4 (ix)
   023D 06 00         [ 7]  423 	ld	b,#0x00
   023F 69            [ 4]  424 	ld	l, c
   0240 60            [ 4]  425 	ld	h, b
   0241 29            [11]  426 	add	hl, hl
   0242 09            [11]  427 	add	hl, bc
   0243 29            [11]  428 	add	hl, hl
   0244 29            [11]  429 	add	hl, hl
   0245 09            [11]  430 	add	hl, bc
   0246 29            [11]  431 	add	hl, hl
   0247 DD 75 FE      [19]  432 	ld	-2 (ix), l
   024A DD 74 FF      [19]  433 	ld	-1 (ix), h
   024D DD 7E FC      [19]  434 	ld	a, -4 (ix)
   0250 CB 3F         [ 8]  435 	srl	a
   0252 87            [ 4]  436 	add	a, a
   0253 87            [ 4]  437 	add	a, a
   0254 DD 77 FD      [19]  438 	ld	-3 (ix), a
   0257 DD 36 FB 00   [19]  439 	ld	-5 (ix), #0x00
   025B                     440 00116$:
   025B DD 7E FB      [19]  441 	ld	a, -5 (ix)
   025E D6 1A         [ 7]  442 	sub	a, #0x1a
   0260 D2rDDr03      [10]  443 	jp	NC, 00120$
                            444 ;src/blocks.c:119: u8 tile = current_level->blocks_tilemap[y * BLOCKS_MAP_W + x];
   0263 2Ar00r00      [16]  445 	ld	hl, (_current_level)
   0266 23            [ 6]  446 	inc	hl
   0267 23            [ 6]  447 	inc	hl
   0268 4E            [ 7]  448 	ld	c, (hl)
   0269 23            [ 6]  449 	inc	hl
   026A 46            [ 7]  450 	ld	b, (hl)
   026B DD 5E FB      [19]  451 	ld	e, -5 (ix)
   026E 16 00         [ 7]  452 	ld	d, #0x00
   0270 DD 6E FE      [19]  453 	ld	l,-2 (ix)
   0273 DD 66 FF      [19]  454 	ld	h,-1 (ix)
   0276 19            [11]  455 	add	hl, de
   0277 09            [11]  456 	add	hl, bc
   0278 7E            [ 7]  457 	ld	a, (hl)
                            458 ;src/blocks.c:120: switch (tile)
   0279 B7            [ 4]  459 	or	a, a
   027A 28 2C         [12]  460 	jr	Z,00101$
   027C FE 02         [ 7]  461 	cp	a, #0x02
   027E 28 3F         [12]  462 	jr	Z,00102$
   0280 FE 04         [ 7]  463 	cp	a, #0x04
   0282 28 53         [12]  464 	jr	Z,00103$
   0284 FE 06         [ 7]  465 	cp	a, #0x06
   0286 28 67         [12]  466 	jr	Z,00104$
   0288 FE 08         [ 7]  467 	cp	a, #0x08
   028A 28 7B         [12]  468 	jr	Z,00105$
   028C FE 0A         [ 7]  469 	cp	a, #0x0a
   028E CAr1Fr03      [10]  470 	jp	Z,00106$
   0291 FE 0C         [ 7]  471 	cp	a, #0x0c
   0293 CAr37r03      [10]  472 	jp	Z,00107$
   0296 FE 0E         [ 7]  473 	cp	a, #0x0e
   0298 CAr4Fr03      [10]  474 	jp	Z,00108$
   029B FE 10         [ 7]  475 	cp	a, #0x10
   029D CAr66r03      [10]  476 	jp	Z,00109$
   02A0 D6 12         [ 7]  477 	sub	a, #0x12
   02A2 CAr89r03      [10]  478 	jp	Z,00110$
   02A5 C3rA0r03      [10]  479 	jp	00111$
                            480 ;src/blocks.c:122: case WHITE_BLOCK:
   02A8                     481 00101$:
                            482 ;src/blocks.c:123: plant_tile_meta(x, y, WHITE_BLOCK, WHITE_SCORE, SINGLE_HIT_TO_REMOVE);
   02A8 21 32 01      [10]  483 	ld	hl, #0x0132
   02AB E5            [11]  484 	push	hl
   02AC AF            [ 4]  485 	xor	a, a
   02AD F5            [11]  486 	push	af
   02AE 33            [ 6]  487 	inc	sp
   02AF DD 66 FC      [19]  488 	ld	h, -4 (ix)
   02B2 DD 6E FB      [19]  489 	ld	l, -5 (ix)
   02B5 E5            [11]  490 	push	hl
   02B6 CDrEBr03      [17]  491 	call	_plant_tile_meta
   02B9 F1            [10]  492 	pop	af
   02BA F1            [10]  493 	pop	af
   02BB 33            [ 6]  494 	inc	sp
                            495 ;src/blocks.c:124: break;
   02BC C3rD4r03      [10]  496 	jp	00117$
                            497 ;src/blocks.c:125: case ORANGE_BLOCK:
   02BF                     498 00102$:
                            499 ;src/blocks.c:126: plant_tile_meta(x, y, ORANGE_BLOCK, ORANGE_SCORE, SINGLE_HIT_TO_REMOVE);
   02BF 21 3C 01      [10]  500 	ld	hl, #0x013c
   02C2 E5            [11]  501 	push	hl
   02C3 3E 02         [ 7]  502 	ld	a, #0x02
   02C5 F5            [11]  503 	push	af
   02C6 33            [ 6]  504 	inc	sp
   02C7 DD 66 FC      [19]  505 	ld	h, -4 (ix)
   02CA DD 6E FB      [19]  506 	ld	l, -5 (ix)
   02CD E5            [11]  507 	push	hl
   02CE CDrEBr03      [17]  508 	call	_plant_tile_meta
   02D1 F1            [10]  509 	pop	af
   02D2 F1            [10]  510 	pop	af
   02D3 33            [ 6]  511 	inc	sp
                            512 ;src/blocks.c:127: break;
   02D4 C3rD4r03      [10]  513 	jp	00117$
                            514 ;src/blocks.c:128: case CYAN_BLOCK:
   02D7                     515 00103$:
                            516 ;src/blocks.c:129: plant_tile_meta(x, y, CYAN_BLOCK, CYAN_SCORE, SINGLE_HIT_TO_REMOVE);
   02D7 21 46 01      [10]  517 	ld	hl, #0x0146
   02DA E5            [11]  518 	push	hl
   02DB 3E 04         [ 7]  519 	ld	a, #0x04
   02DD F5            [11]  520 	push	af
   02DE 33            [ 6]  521 	inc	sp
   02DF DD 66 FC      [19]  522 	ld	h, -4 (ix)
   02E2 DD 6E FB      [19]  523 	ld	l, -5 (ix)
   02E5 E5            [11]  524 	push	hl
   02E6 CDrEBr03      [17]  525 	call	_plant_tile_meta
   02E9 F1            [10]  526 	pop	af
   02EA F1            [10]  527 	pop	af
   02EB 33            [ 6]  528 	inc	sp
                            529 ;src/blocks.c:130: break;
   02EC C3rD4r03      [10]  530 	jp	00117$
                            531 ;src/blocks.c:131: case GREEN_BLOCK:
   02EF                     532 00104$:
                            533 ;src/blocks.c:132: plant_tile_meta(x, y, GREEN_BLOCK, GREEN_SCORE, SINGLE_HIT_TO_REMOVE);
   02EF 21 50 01      [10]  534 	ld	hl, #0x0150
   02F2 E5            [11]  535 	push	hl
   02F3 3E 06         [ 7]  536 	ld	a, #0x06
   02F5 F5            [11]  537 	push	af
   02F6 33            [ 6]  538 	inc	sp
   02F7 DD 66 FC      [19]  539 	ld	h, -4 (ix)
   02FA DD 6E FB      [19]  540 	ld	l, -5 (ix)
   02FD E5            [11]  541 	push	hl
   02FE CDrEBr03      [17]  542 	call	_plant_tile_meta
   0301 F1            [10]  543 	pop	af
   0302 F1            [10]  544 	pop	af
   0303 33            [ 6]  545 	inc	sp
                            546 ;src/blocks.c:133: break;
   0304 C3rD4r03      [10]  547 	jp	00117$
                            548 ;src/blocks.c:134: case RED_BLOCK:
   0307                     549 00105$:
                            550 ;src/blocks.c:135: plant_tile_meta(x, y, RED_BLOCK, RED_SCORE, SINGLE_HIT_TO_REMOVE);
   0307 21 5A 01      [10]  551 	ld	hl, #0x015a
   030A E5            [11]  552 	push	hl
   030B 3E 08         [ 7]  553 	ld	a, #0x08
   030D F5            [11]  554 	push	af
   030E 33            [ 6]  555 	inc	sp
   030F DD 66 FC      [19]  556 	ld	h, -4 (ix)
   0312 DD 6E FB      [19]  557 	ld	l, -5 (ix)
   0315 E5            [11]  558 	push	hl
   0316 CDrEBr03      [17]  559 	call	_plant_tile_meta
   0319 F1            [10]  560 	pop	af
   031A F1            [10]  561 	pop	af
   031B 33            [ 6]  562 	inc	sp
                            563 ;src/blocks.c:136: break;
   031C C3rD4r03      [10]  564 	jp	00117$
                            565 ;src/blocks.c:137: case BLUE_BLOCK:
   031F                     566 00106$:
                            567 ;src/blocks.c:138: plant_tile_meta(x, y, BLUE_BLOCK, BLUE_SCORE, SINGLE_HIT_TO_REMOVE);
   031F 21 64 01      [10]  568 	ld	hl, #0x0164
   0322 E5            [11]  569 	push	hl
   0323 3E 0A         [ 7]  570 	ld	a, #0x0a
   0325 F5            [11]  571 	push	af
   0326 33            [ 6]  572 	inc	sp
   0327 DD 66 FC      [19]  573 	ld	h, -4 (ix)
   032A DD 6E FB      [19]  574 	ld	l, -5 (ix)
   032D E5            [11]  575 	push	hl
   032E CDrEBr03      [17]  576 	call	_plant_tile_meta
   0331 F1            [10]  577 	pop	af
   0332 F1            [10]  578 	pop	af
   0333 33            [ 6]  579 	inc	sp
                            580 ;src/blocks.c:139: break;
   0334 C3rD4r03      [10]  581 	jp	00117$
                            582 ;src/blocks.c:140: case MAGENTA_BLOCK:
   0337                     583 00107$:
                            584 ;src/blocks.c:141: plant_tile_meta(x, y, MAGENTA_BLOCK, MAGENTA_SCORE, SINGLE_HIT_TO_REMOVE);
   0337 21 6E 01      [10]  585 	ld	hl, #0x016e
   033A E5            [11]  586 	push	hl
   033B 3E 0C         [ 7]  587 	ld	a, #0x0c
   033D F5            [11]  588 	push	af
   033E 33            [ 6]  589 	inc	sp
   033F DD 66 FC      [19]  590 	ld	h, -4 (ix)
   0342 DD 6E FB      [19]  591 	ld	l, -5 (ix)
   0345 E5            [11]  592 	push	hl
   0346 CDrEBr03      [17]  593 	call	_plant_tile_meta
   0349 F1            [10]  594 	pop	af
   034A F1            [10]  595 	pop	af
   034B 33            [ 6]  596 	inc	sp
                            597 ;src/blocks.c:142: break;
   034C C3rD4r03      [10]  598 	jp	00117$
                            599 ;src/blocks.c:143: case YELLOW_BLOCK:
   034F                     600 00108$:
                            601 ;src/blocks.c:144: plant_tile_meta(x, y, YELLOW_BLOCK, YELLOW_SCORE, SINGLE_HIT_TO_REMOVE);
   034F 21 78 01      [10]  602 	ld	hl, #0x0178
   0352 E5            [11]  603 	push	hl
   0353 3E 0E         [ 7]  604 	ld	a, #0x0e
   0355 F5            [11]  605 	push	af
   0356 33            [ 6]  606 	inc	sp
   0357 DD 66 FC      [19]  607 	ld	h, -4 (ix)
   035A DD 6E FB      [19]  608 	ld	l, -5 (ix)
   035D E5            [11]  609 	push	hl
   035E CDrEBr03      [17]  610 	call	_plant_tile_meta
   0361 F1            [10]  611 	pop	af
   0362 F1            [10]  612 	pop	af
   0363 33            [ 6]  613 	inc	sp
                            614 ;src/blocks.c:145: break;
   0364 18 6E         [12]  615 	jr	00117$
                            616 ;src/blocks.c:146: case STEEL_BLOCK:
   0366                     617 00109$:
                            618 ;src/blocks.c:147: plant_tile_meta(x, y, STEEL_BLOCK, current_level->steel_hits_to_destroy, current_level->steel_score);
   0366 2Ar00r00      [16]  619 	ld	hl, (_current_level)
   0369 11 04 00      [10]  620 	ld	de, #0x0004
   036C 19            [11]  621 	add	hl, de
   036D 56            [ 7]  622 	ld	d, (hl)
   036E FD 2Ar00r00   [20]  623 	ld	iy, (_current_level)
   0372 FD 5E 05      [19]  624 	ld	e, 5 (iy)
   0375 D5            [11]  625 	push	de
   0376 3E 10         [ 7]  626 	ld	a, #0x10
   0378 F5            [11]  627 	push	af
   0379 33            [ 6]  628 	inc	sp
   037A DD 66 FC      [19]  629 	ld	h, -4 (ix)
   037D DD 6E FB      [19]  630 	ld	l, -5 (ix)
   0380 E5            [11]  631 	push	hl
   0381 CDrEBr03      [17]  632 	call	_plant_tile_meta
   0384 F1            [10]  633 	pop	af
   0385 F1            [10]  634 	pop	af
   0386 33            [ 6]  635 	inc	sp
                            636 ;src/blocks.c:148: break;
   0387 18 4B         [12]  637 	jr	00117$
                            638 ;src/blocks.c:149: case GOLD_BLOCK:
   0389                     639 00110$:
                            640 ;src/blocks.c:150: plant_tile_meta(x, y, GOLD_BLOCK, 0, INDESTRUCTABLE);
   0389 21 00 FF      [10]  641 	ld	hl, #0xff00
   038C E5            [11]  642 	push	hl
   038D 3E 12         [ 7]  643 	ld	a, #0x12
   038F F5            [11]  644 	push	af
   0390 33            [ 6]  645 	inc	sp
   0391 DD 66 FC      [19]  646 	ld	h, -4 (ix)
   0394 DD 6E FB      [19]  647 	ld	l, -5 (ix)
   0397 E5            [11]  648 	push	hl
   0398 CDrEBr03      [17]  649 	call	_plant_tile_meta
   039B F1            [10]  650 	pop	af
   039C F1            [10]  651 	pop	af
   039D 33            [ 6]  652 	inc	sp
                            653 ;src/blocks.c:151: break;
   039E 18 34         [12]  654 	jr	00117$
                            655 ;src/blocks.c:152: default:
   03A0                     656 00111$:
                            657 ;src/blocks.c:154: block_meta[x / 2][y / 2].is_active = 0;
   03A0 DD 4E FB      [19]  658 	ld	c, -5 (ix)
   03A3 CB 39         [ 8]  659 	srl	c
   03A5 06 00         [ 7]  660 	ld	b,#0x00
   03A7 69            [ 4]  661 	ld	l, c
   03A8 60            [ 4]  662 	ld	h, b
   03A9 29            [11]  663 	add	hl, hl
   03AA 09            [11]  664 	add	hl, bc
   03AB 29            [11]  665 	add	hl, hl
   03AC 09            [11]  666 	add	hl, bc
   03AD 29            [11]  667 	add	hl, hl
   03AE 29            [11]  668 	add	hl, hl
   03AF 29            [11]  669 	add	hl, hl
   03B0 01r06r00      [10]  670 	ld	bc,#_block_meta
   03B3 09            [11]  671 	add	hl,bc
   03B4 4D            [ 4]  672 	ld	c, l
   03B5 44            [ 4]  673 	ld	b, h
   03B6 DD 6E FD      [19]  674 	ld	l,-3 (ix)
   03B9 26 00         [ 7]  675 	ld	h,#0x00
   03BB 09            [11]  676 	add	hl, bc
   03BC 36 00         [10]  677 	ld	(hl), #0x00
                            678 ;src/blocks.c:155: block_meta[x / 2][y / 2].score = 0;
   03BE DD 7E FD      [19]  679 	ld	a, -3 (ix)
   03C1 81            [ 4]  680 	add	a, c
   03C2 4F            [ 4]  681 	ld	c, a
   03C3 3E 00         [ 7]  682 	ld	a, #0x00
   03C5 88            [ 4]  683 	adc	a, b
   03C6 47            [ 4]  684 	ld	b, a
   03C7 59            [ 4]  685 	ld	e, c
   03C8 50            [ 4]  686 	ld	d, b
   03C9 13            [ 6]  687 	inc	de
   03CA 13            [ 6]  688 	inc	de
   03CB AF            [ 4]  689 	xor	a, a
   03CC 12            [ 7]  690 	ld	(de), a
                            691 ;src/blocks.c:156: block_meta[x / 2][y / 2].remaining_hits = 0;
   03CD 03            [ 6]  692 	inc	bc
   03CE 03            [ 6]  693 	inc	bc
   03CF 03            [ 6]  694 	inc	bc
   03D0 60            [ 4]  695 	ld	h, b
   03D1 69            [ 4]  696 	ld	l, c
   03D2 36 00         [10]  697 	ld	(hl), #0x00
                            698 ;src/blocks.c:159: }
   03D4                     699 00117$:
                            700 ;src/blocks.c:117: for (u8 x = 0; x < BLOCKS_MAP_W; x += 2)
   03D4 DD 34 FB      [23]  701 	inc	-5 (ix)
   03D7 DD 34 FB      [23]  702 	inc	-5 (ix)
   03DA C3r5Br02      [10]  703 	jp	00116$
   03DD                     704 00120$:
                            705 ;src/blocks.c:115: for (u8 y = 0; y < BLOCKS_MAP_H; y += 2)
   03DD DD 34 FC      [23]  706 	inc	-4 (ix)
   03E0 DD 34 FC      [23]  707 	inc	-4 (ix)
   03E3 C3r32r02      [10]  708 	jp	00119$
   03E6                     709 00121$:
   03E6 DD F9         [10]  710 	ld	sp, ix
   03E8 DD E1         [14]  711 	pop	ix
   03EA C9            [10]  712 	ret
                            713 ;src/blocks.c:164: void plant_tile_meta(u8 map_x, u8 map_y, u8 tile_type, u8 score, u8 hits_to_destroy)
                            714 ;	---------------------------------
                            715 ; Function plant_tile_meta
                            716 ; ---------------------------------
   03EB                     717 _plant_tile_meta::
   03EB DD E5         [15]  718 	push	ix
   03ED DD 21 00 00   [14]  719 	ld	ix,#0
   03F1 DD 39         [15]  720 	add	ix,sp
                            721 ;src/blocks.c:166: block_meta[map_x / 2][map_y / 2].is_active = 1;
   03F3 01r06r00      [10]  722 	ld	bc, #_block_meta+0
   03F6 DD 5E 04      [19]  723 	ld	e, 4 (ix)
   03F9 CB 3B         [ 8]  724 	srl	e
   03FB 16 00         [ 7]  725 	ld	d,#0x00
   03FD 6B            [ 4]  726 	ld	l, e
   03FE 62            [ 4]  727 	ld	h, d
   03FF 29            [11]  728 	add	hl, hl
   0400 19            [11]  729 	add	hl, de
   0401 29            [11]  730 	add	hl, hl
   0402 19            [11]  731 	add	hl, de
   0403 29            [11]  732 	add	hl, hl
   0404 29            [11]  733 	add	hl, hl
   0405 29            [11]  734 	add	hl, hl
   0406 09            [11]  735 	add	hl, bc
   0407 DD 7E 05      [19]  736 	ld	a, 5 (ix)
   040A CB 3F         [ 8]  737 	srl	a
   040C 87            [ 4]  738 	add	a, a
   040D 87            [ 4]  739 	add	a, a
   040E 85            [ 4]  740 	add	a, l
   040F 4F            [ 4]  741 	ld	c, a
   0410 3E 00         [ 7]  742 	ld	a, #0x00
   0412 8C            [ 4]  743 	adc	a, h
   0413 47            [ 4]  744 	ld	b, a
   0414 3E 01         [ 7]  745 	ld	a, #0x01
   0416 02            [ 7]  746 	ld	(bc), a
                            747 ;src/blocks.c:167: block_meta[map_x / 2][map_y / 2].score = score;
   0417 59            [ 4]  748 	ld	e, c
   0418 50            [ 4]  749 	ld	d, b
   0419 13            [ 6]  750 	inc	de
   041A 13            [ 6]  751 	inc	de
   041B DD 7E 07      [19]  752 	ld	a, 7 (ix)
   041E 12            [ 7]  753 	ld	(de), a
                            754 ;src/blocks.c:168: block_meta[map_x / 2][map_y / 2].remaining_hits = hits_to_destroy;
   041F 59            [ 4]  755 	ld	e, c
   0420 50            [ 4]  756 	ld	d, b
   0421 13            [ 6]  757 	inc	de
   0422 13            [ 6]  758 	inc	de
   0423 13            [ 6]  759 	inc	de
   0424 DD 7E 08      [19]  760 	ld	a, 8 (ix)
   0427 12            [ 7]  761 	ld	(de), a
                            762 ;src/blocks.c:169: block_meta[map_x / 2][map_y / 2].type = tile_type;
   0428 03            [ 6]  763 	inc	bc
   0429 DD 7E 06      [19]  764 	ld	a, 6 (ix)
   042C 02            [ 7]  765 	ld	(bc), a
   042D DD E1         [14]  766 	pop	ix
   042F C9            [10]  767 	ret
                            768 	.area _CODE
                            769 	.area _INITIALIZER
                            770 	.area _CABS (ABS)
