                              1 ;--------------------------------------------------------
                              2 ; File Created by SDCC : free open source ANSI-C Compiler
                              3 ; Version 3.6.8 #9946 (Linux)
                              4 ;--------------------------------------------------------
                              5 	.module keys
                              6 	.optsdcc -mz80
                              7 	
                              8 ;--------------------------------------------------------
                              9 ; Public variables in this module
                             10 ;--------------------------------------------------------
                             11 	.globl _cpct_isAnyKeyPressed_f
                             12 	.globl _cpct_isKeyPressed
                             13 	.globl _cpct_scanKeyboard_f
                             14 	.globl _key_pause_is_pressed
                             15 	.globl _key_any_is_pressed
                             16 	.globl _key_auto_is_pressed
                             17 	.globl _key_serve_is_pressed
                             18 	.globl _key_right_is_pressed
                             19 	.globl _key_left_is_pressed
                             20 	.globl _keys_initialize
                             21 	.globl _keys_resetAllKeys
                             22 	.globl _keys_update
                             23 ;--------------------------------------------------------
                             24 ; special function registers
                             25 ;--------------------------------------------------------
                             26 ;--------------------------------------------------------
                             27 ; ram data
                             28 ;--------------------------------------------------------
                             29 	.area _DATA
   0000                      30 _key_left_is_pressed::
   0000                      31 	.ds 1
   0001                      32 _key_right_is_pressed::
   0001                      33 	.ds 1
   0002                      34 _key_serve_is_pressed::
   0002                      35 	.ds 1
   0003                      36 _key_auto_is_pressed::
   0003                      37 	.ds 1
   0004                      38 _key_any_is_pressed::
   0004                      39 	.ds 1
   0005                      40 _key_pause_is_pressed::
   0005                      41 	.ds 1
                             42 ;--------------------------------------------------------
                             43 ; ram data
                             44 ;--------------------------------------------------------
                             45 	.area _INITIALIZED
                             46 ;--------------------------------------------------------
                             47 ; absolute external ram data
                             48 ;--------------------------------------------------------
                             49 	.area _DABS (ABS)
                             50 ;--------------------------------------------------------
                             51 ; global & static initialisations
                             52 ;--------------------------------------------------------
                             53 	.area _HOME
                             54 	.area _GSINIT
                             55 	.area _GSFINAL
                             56 	.area _GSINIT
                             57 ;--------------------------------------------------------
                             58 ; Home
                             59 ;--------------------------------------------------------
                             60 	.area _HOME
                             61 	.area _HOME
                             62 ;--------------------------------------------------------
                             63 ; code
                             64 ;--------------------------------------------------------
                             65 	.area _CODE
                             66 ;src/keys.c:13: void keys_initialize() {
                             67 ;	---------------------------------
                             68 ; Function keys_initialize
                             69 ; ---------------------------------
   0000                      70 _keys_initialize::
                             71 ;src/keys.c:14: keys_resetAllKeys();    
   0000 C3r03r00      [10]   72 	jp  _keys_resetAllKeys
                             73 ;src/keys.c:17: void  keys_resetAllKeys() {
                             74 ;	---------------------------------
                             75 ; Function keys_resetAllKeys
                             76 ; ---------------------------------
   0003                      77 _keys_resetAllKeys::
                             78 ;src/keys.c:18: key_left_is_pressed = key_right_is_pressed = key_serve_is_pressed = 0;
   0003 21r02r00      [10]   79 	ld	hl,#_key_serve_is_pressed + 0
   0006 36 00         [10]   80 	ld	(hl), #0x00
   0008 21r01r00      [10]   81 	ld	hl,#_key_right_is_pressed + 0
   000B 36 00         [10]   82 	ld	(hl), #0x00
   000D 21r00r00      [10]   83 	ld	hl,#_key_left_is_pressed + 0
   0010 36 00         [10]   84 	ld	(hl), #0x00
                             85 ;src/keys.c:19: key_auto_is_pressed = key_any_is_pressed = 0;
   0012 21r04r00      [10]   86 	ld	hl,#_key_any_is_pressed + 0
   0015 36 00         [10]   87 	ld	(hl), #0x00
   0017 21r03r00      [10]   88 	ld	hl,#_key_auto_is_pressed + 0
   001A 36 00         [10]   89 	ld	(hl), #0x00
   001C C9            [10]   90 	ret
                             91 ;src/keys.c:23: void keys_update() {
                             92 ;	---------------------------------
                             93 ; Function keys_update
                             94 ; ---------------------------------
   001D                      95 _keys_update::
                             96 ;src/keys.c:24: cpct_scanKeyboard_f();
   001D CDr00r00      [17]   97 	call	_cpct_scanKeyboard_f
                             98 ;src/keys.c:25: key_left_is_pressed = cpct_isKeyPressed(Key_CursorLeft);
   0020 21 01 01      [10]   99 	ld	hl, #0x0101
   0023 CDr00r00      [17]  100 	call	_cpct_isKeyPressed
   0026 FD 21r00r00   [14]  101 	ld	iy, #_key_left_is_pressed
   002A FD 75 00      [19]  102 	ld	0 (iy), l
                            103 ;src/keys.c:26: key_left_is_pressed |= cpct_isKeyPressed(Key_A);
   002D 21 08 20      [10]  104 	ld	hl, #0x2008
   0030 CDr00r00      [17]  105 	call	_cpct_isKeyPressed
   0033 7D            [ 4]  106 	ld	a, l
   0034 FD 21r00r00   [14]  107 	ld	iy, #_key_left_is_pressed
   0038 FD B6 00      [19]  108 	or	a, 0 (iy)
   003B FD 77 00      [19]  109 	ld	0 (iy), a
                            110 ;src/keys.c:28: key_right_is_pressed = cpct_isKeyPressed(Key_CursorRight);
   003E 21 00 02      [10]  111 	ld	hl, #0x0200
   0041 CDr00r00      [17]  112 	call	_cpct_isKeyPressed
   0044 FD 21r01r00   [14]  113 	ld	iy, #_key_right_is_pressed
   0048 FD 75 00      [19]  114 	ld	0 (iy), l
                            115 ;src/keys.c:29: key_right_is_pressed |= cpct_isKeyPressed(Key_D);
   004B 21 07 20      [10]  116 	ld	hl, #0x2007
   004E CDr00r00      [17]  117 	call	_cpct_isKeyPressed
   0051 7D            [ 4]  118 	ld	a, l
   0052 FD 21r01r00   [14]  119 	ld	iy, #_key_right_is_pressed
   0056 FD B6 00      [19]  120 	or	a, 0 (iy)
   0059 FD 77 00      [19]  121 	ld	0 (iy), a
                            122 ;src/keys.c:31: key_serve_is_pressed = cpct_isKeyPressed(Key_CursorUp);
   005C 21 00 01      [10]  123 	ld	hl, #0x0100
   005F CDr00r00      [17]  124 	call	_cpct_isKeyPressed
   0062 FD 21r02r00   [14]  125 	ld	iy, #_key_serve_is_pressed
   0066 FD 75 00      [19]  126 	ld	0 (iy), l
                            127 ;src/keys.c:32: key_serve_is_pressed |= cpct_isKeyPressed(Key_W);
   0069 21 07 08      [10]  128 	ld	hl, #0x0807
   006C CDr00r00      [17]  129 	call	_cpct_isKeyPressed
   006F 7D            [ 4]  130 	ld	a, l
   0070 FD 21r02r00   [14]  131 	ld	iy, #_key_serve_is_pressed
   0074 FD B6 00      [19]  132 	or	a, 0 (iy)
   0077 FD 77 00      [19]  133 	ld	0 (iy), a
                            134 ;src/keys.c:35: key_auto_is_pressed = cpct_isKeyPressed(Key_0);
   007A 21 04 01      [10]  135 	ld	hl, #0x0104
   007D CDr00r00      [17]  136 	call	_cpct_isKeyPressed
   0080 FD 21r03r00   [14]  137 	ld	iy, #_key_auto_is_pressed
   0084 FD 75 00      [19]  138 	ld	0 (iy), l
                            139 ;src/keys.c:36: key_pause_is_pressed = cpct_isKeyPressed(Key_1);
   0087 21 08 01      [10]  140 	ld	hl, #0x0108
   008A CDr00r00      [17]  141 	call	_cpct_isKeyPressed
   008D FD 21r05r00   [14]  142 	ld	iy, #_key_pause_is_pressed
   0091 FD 75 00      [19]  143 	ld	0 (iy), l
                            144 ;src/keys.c:37: key_any_is_pressed = cpct_isAnyKeyPressed_f();
   0094 CDr00r00      [17]  145 	call	_cpct_isAnyKeyPressed_f
   0097 FD 21r04r00   [14]  146 	ld	iy, #_key_any_is_pressed
   009B FD 75 00      [19]  147 	ld	0 (iy), l
   009E C9            [10]  148 	ret
                            149 	.area _CODE
                            150 	.area _INITIALIZER
                            151 	.area _CABS (ABS)
